
target/main.elf：     文件格式 elf32-littlearm


Disassembly of section .text:

87800000 <_bss_start>:
87800000:	8780020c 	strhi	r0, [r0, ip, lsl #4]

87800004 <_bss_end>:
87800004:	8780020c 	strhi	r0, [r0, ip, lsl #4]

87800008 <_start>:
87800008:	e10f0000 	mrs	r0, CPSR
8780000c:	e3c0001f 	bic	r0, r0, #31
87800010:	e3800013 	orr	r0, r0, #19
87800014:	e129f000 	msr	CPSR_fc, r0
87800018:	e51f0020 	ldr	r0, [pc, #-32]	@ 87800000 <_bss_start>
8780001c:	e51f1020 	ldr	r1, [pc, #-32]	@ 87800004 <_bss_end>
87800020:	e3a02000 	mov	r2, #0

87800024 <bss_loop>:
87800024:	e8a00004 	stmia	r0!, {r2}
87800028:	e1500001 	cmp	r0, r1
8780002c:	dafffffc 	ble	87800024 <bss_loop>
87800030:	e51fd000 	ldr	sp, [pc, #-0]	@ 87800038 <bss_loop+0x14>
87800034:	ea00005d 	b	878001b0 <__main_from_arm>
87800038:	80200000 	eorhi	r0, r0, r0
8780003c:	00001e41 	andeq	r1, r0, r1, asr #28
87800040:	61656100 	cmnvs	r5, r0, lsl #2
87800044:	01006962 	tsteq	r0, r2, ror #18
87800048:	00000014 	andeq	r0, r0, r4, lsl r0
8780004c:	412d3705 			@ <UNDEFINED> instruction: 0x412d3705
87800050:	070a0600 	streq	r0, [sl, -r0, lsl #12]
87800054:	09010841 	stmdbeq	r1, {r0, r6, fp}
87800058:	00040a02 	andeq	r0, r4, r2, lsl #20

8780005c <beep_init>:
8780005c:	2200      	movs	r2, #0
8780005e:	f2c0 2229 	movt	r2, #553	@ 0x229
87800062:	f44f 4340 	mov.w	r3, #49152	@ 0xc000
87800066:	f2c0 230a 	movt	r3, #522	@ 0x20a
8780006a:	2005      	movs	r0, #5
8780006c:	f241 01b0 	movw	r1, #4272	@ 0x10b0
87800070:	60d0      	str	r0, [r2, #12]
87800072:	6511      	str	r1, [r2, #80]	@ 0x50
87800074:	685a      	ldr	r2, [r3, #4]
87800076:	f042 0202 	orr.w	r2, r2, #2
8780007a:	605a      	str	r2, [r3, #4]
8780007c:	681a      	ldr	r2, [r3, #0]
8780007e:	f042 0202 	orr.w	r2, r2, #2
87800082:	601a      	str	r2, [r3, #0]
87800084:	4770      	bx	lr
87800086:	bf00      	nop

87800088 <beep_on>:
87800088:	f44f 4340 	mov.w	r3, #49152	@ 0xc000
8780008c:	f2c0 230a 	movt	r3, #522	@ 0x20a
87800090:	681a      	ldr	r2, [r3, #0]
87800092:	f022 0202 	bic.w	r2, r2, #2
87800096:	601a      	str	r2, [r3, #0]
87800098:	4770      	bx	lr
8780009a:	bf00      	nop

8780009c <beep_off>:
8780009c:	f44f 4340 	mov.w	r3, #49152	@ 0xc000
878000a0:	f2c0 230a 	movt	r3, #522	@ 0x20a
878000a4:	681a      	ldr	r2, [r3, #0]
878000a6:	f042 0202 	orr.w	r2, r2, #2
878000aa:	601a      	str	r2, [r3, #0]
878000ac:	4770      	bx	lr
878000ae:	bf00      	nop

878000b0 <key_init>:
878000b0:	2200      	movs	r2, #0
878000b2:	f2c0 220e 	movt	r2, #526	@ 0x20e
878000b6:	f44f 4340 	mov.w	r3, #49152	@ 0xc000
878000ba:	f2c0 2309 	movt	r3, #521	@ 0x209
878000be:	2005      	movs	r0, #5
878000c0:	f24f 0180 	movw	r1, #61568	@ 0xf080
878000c4:	f8c2 008c 	str.w	r0, [r2, #140]	@ 0x8c
878000c8:	f8c2 1318 	str.w	r1, [r2, #792]	@ 0x318
878000cc:	685a      	ldr	r2, [r3, #4]
878000ce:	f422 2280 	bic.w	r2, r2, #262144	@ 0x40000
878000d2:	605a      	str	r2, [r3, #4]
878000d4:	4770      	bx	lr
878000d6:	bf00      	nop

878000d8 <key_get_status>:
878000d8:	b510      	push	{r4, lr}
878000da:	f44f 4440 	mov.w	r4, #49152	@ 0xc000
878000de:	f2c0 2409 	movt	r4, #521	@ 0x209
878000e2:	6823      	ldr	r3, [r4, #0]
878000e4:	035b      	lsls	r3, r3, #13
878000e6:	d505      	bpl.n	878000f4 <key_get_status+0x1c>
878000e8:	4b0a      	ldr	r3, [pc, #40]	@ (87800114 <key_get_status+0x3c>)
878000ea:	2201      	movs	r2, #1
878000ec:	4610      	mov	r0, r2
878000ee:	447b      	add	r3, pc
878000f0:	601a      	str	r2, [r3, #0]
878000f2:	bd10      	pop	{r4, pc}
878000f4:	200a      	movs	r0, #10
878000f6:	f000 f847 	bl	87800188 <delay>
878000fa:	6820      	ldr	r0, [r4, #0]
878000fc:	f410 2080 	ands.w	r0, r0, #262144	@ 0x40000
87800100:	d103      	bne.n	8780010a <key_get_status+0x32>
87800102:	4b05      	ldr	r3, [pc, #20]	@ (87800118 <key_get_status+0x40>)
87800104:	447b      	add	r3, pc
87800106:	6018      	str	r0, [r3, #0]
87800108:	bd10      	pop	{r4, pc}
8780010a:	4b04      	ldr	r3, [pc, #16]	@ (8780011c <key_get_status+0x44>)
8780010c:	447b      	add	r3, pc
8780010e:	6818      	ldr	r0, [r3, #0]
87800110:	bd10      	pop	{r4, pc}
87800112:	bf00      	nop
87800114:	00000116 	andeq	r0, r0, r6, lsl r1
87800118:	00000100 	andeq	r0, r0, r0, lsl #2
8780011c:	000000f8 	strdeq	r0, [r0], -r8

87800120 <led_init>:
87800120:	2200      	movs	r2, #0
87800122:	f2c0 220e 	movt	r2, #526	@ 0x20e
87800126:	f44f 4340 	mov.w	r3, #49152	@ 0xc000
8780012a:	f2c0 2309 	movt	r3, #521	@ 0x209
8780012e:	b410      	push	{r4}
87800130:	2105      	movs	r1, #5
87800132:	f241 04b0 	movw	r4, #4272	@ 0x10b0
87800136:	6691      	str	r1, [r2, #104]	@ 0x68
87800138:	2008      	movs	r0, #8
8780013a:	f8c2 42f4 	str.w	r4, [r2, #756]	@ 0x2f4
8780013e:	2100      	movs	r1, #0
87800140:	6058      	str	r0, [r3, #4]
87800142:	f85d 4b04 	ldr.w	r4, [sp], #4
87800146:	6019      	str	r1, [r3, #0]
87800148:	4770      	bx	lr
8780014a:	bf00      	nop

8780014c <led_on>:
8780014c:	f44f 4340 	mov.w	r3, #49152	@ 0xc000
87800150:	f2c0 2309 	movt	r3, #521	@ 0x209
87800154:	681a      	ldr	r2, [r3, #0]
87800156:	f022 0208 	bic.w	r2, r2, #8
8780015a:	601a      	str	r2, [r3, #0]
8780015c:	4770      	bx	lr
8780015e:	bf00      	nop

87800160 <led_off>:
87800160:	f44f 4340 	mov.w	r3, #49152	@ 0xc000
87800164:	f2c0 2309 	movt	r3, #521	@ 0x209
87800168:	681a      	ldr	r2, [r3, #0]
8780016a:	f042 0208 	orr.w	r2, r2, #8
8780016e:	601a      	str	r2, [r3, #0]
87800170:	4770      	bx	lr
87800172:	bf00      	nop

87800174 <delay_short>:
87800174:	b082      	sub	sp, #8
87800176:	9001      	str	r0, [sp, #4]
87800178:	9b01      	ldr	r3, [sp, #4]
8780017a:	1e5a      	subs	r2, r3, #1
8780017c:	9201      	str	r2, [sp, #4]
8780017e:	2b00      	cmp	r3, #0
87800180:	d1fa      	bne.n	87800178 <delay_short+0x4>
87800182:	b002      	add	sp, #8
87800184:	4770      	bx	lr
87800186:	bf00      	nop

87800188 <delay>:
87800188:	b082      	sub	sp, #8
8780018a:	9001      	str	r0, [sp, #4]
8780018c:	9b01      	ldr	r3, [sp, #4]
8780018e:	1e5a      	subs	r2, r3, #1
87800190:	9201      	str	r2, [sp, #4]
87800192:	b153      	cbz	r3, 878001aa <delay+0x22>
87800194:	f240 73ff 	movw	r3, #2047	@ 0x7ff
87800198:	461a      	mov	r2, r3
8780019a:	3b01      	subs	r3, #1
8780019c:	2a00      	cmp	r2, #0
8780019e:	d1fb      	bne.n	87800198 <delay+0x10>
878001a0:	9b01      	ldr	r3, [sp, #4]
878001a2:	1e5a      	subs	r2, r3, #1
878001a4:	9201      	str	r2, [sp, #4]
878001a6:	2b00      	cmp	r3, #0
878001a8:	d1f4      	bne.n	87800194 <delay+0xc>
878001aa:	b002      	add	sp, #8
878001ac:	4770      	bx	lr
878001ae:	bf00      	nop

878001b0 <__main_from_arm>:
878001b0:	e51ff004 	ldr	pc, [pc, #-4]	@ 878001b4 <__main_from_arm+0x4>
878001b4:	878001b9 			@ <UNDEFINED> instruction: 0x878001b9

Disassembly of section .text.startup:

878001b8 <main>:
878001b8:	b508      	push	{r3, lr}
878001ba:	f44f 4380 	mov.w	r3, #16384	@ 0x4000
878001be:	f2c0 230c 	movt	r3, #524	@ 0x20c
878001c2:	f04f 32ff 	mov.w	r2, #4294967295	@ 0xffffffff
878001c6:	669a      	str	r2, [r3, #104]	@ 0x68
878001c8:	66da      	str	r2, [r3, #108]	@ 0x6c
878001ca:	671a      	str	r2, [r3, #112]	@ 0x70
878001cc:	675a      	str	r2, [r3, #116]	@ 0x74
878001ce:	679a      	str	r2, [r3, #120]	@ 0x78
878001d0:	67da      	str	r2, [r3, #124]	@ 0x7c
878001d2:	f8c3 2080 	str.w	r2, [r3, #128]	@ 0x80
878001d6:	f7ff ffa3 	bl	87800120 <led_init>
878001da:	f7ff ff3f 	bl	8780005c <beep_init>
878001de:	f7ff ff67 	bl	878000b0 <key_init>
878001e2:	f7ff ff79 	bl	878000d8 <key_get_status>
878001e6:	200a      	movs	r0, #10
878001e8:	f7ff ffce 	bl	87800188 <delay>
878001ec:	f7ff ff74 	bl	878000d8 <key_get_status>
878001f0:	b920      	cbnz	r0, 878001fc <main+0x44>
878001f2:	f7ff ffab 	bl	8780014c <led_on>
878001f6:	f7ff ff47 	bl	87800088 <beep_on>
878001fa:	e7f2      	b.n	878001e2 <main+0x2a>
878001fc:	f7ff ffb0 	bl	87800160 <led_off>
87800200:	f7ff ff4c 	bl	8780009c <beep_off>
87800204:	e7ed      	b.n	878001e2 <main+0x2a>
87800206:	bf00      	nop

Disassembly of section .comment:

00000000 <.comment>:
   0:	3a434347 	bcc	10d0d24 <_bss_start-0x8672f2dc>
   4:	62552820 	subsvs	r2, r5, #32, 16	@ 0x200000
   8:	75746e75 	ldrbvc	r6, [r4, #-3701]!	@ 0xfffff18b
   c:	2e333120 	rsfcssp	f3, f3, f0
  10:	2d302e33 	ldccs	14, cr2, [r0, #-204]!	@ 0xffffff34
  14:	75627536 	strbvc	r7, [r2, #-1334]!	@ 0xfffffaca
  18:	3275746e 	rsbscc	r7, r5, #1845493760	@ 0x6e000000
  1c:	2e34327e 	mrccs	2, 1, r3, cr4, cr14, {3}
  20:	20293430 	eorcs	r3, r9, r0, lsr r4
  24:	332e3331 			@ <UNDEFINED> instruction: 0x332e3331
  28:	Address 0x28 is out of bounds.


Disassembly of section .ARM.attributes:

00000000 <.ARM.attributes>:
   0:	00002e41 	andeq	r2, r0, r1, asr #28
   4:	61656100 	cmnvs	r5, r0, lsl #2
   8:	01006962 	tsteq	r0, r2, ror #18
   c:	00000024 	andeq	r0, r0, r4, lsr #32
  10:	412d3705 			@ <UNDEFINED> instruction: 0x412d3705
  14:	070a0600 	streq	r0, [sl, -r0, lsl #12]
  18:	09010841 	stmdbeq	r1, {r0, r6, fp}
  1c:	12040a02 	andne	r0, r4, #8192	@ 0x2000
  20:	15011404 	strne	r1, [r1, #-1028]	@ 0xfffffbfc
  24:	18031701 	stmdane	r3, {r0, r8, r9, sl, ip}
  28:	1c021a01 			@ <UNDEFINED> instruction: 0x1c021a01
  2c:	Address 0x2c is out of bounds.


Disassembly of section .data:

87800208 <ret.0>:
87800208:	00000001 	andeq	r0, r0, r1
