
target/main.elf：     文件格式 elf32-littlearm


Disassembly of section .text:

87800000 <_start>:
87800000:	e59ff138 	ldr	pc, [pc, #312]	@ 87800140 <FIQ_Handler+0x8>
87800004:	e59ff138 	ldr	pc, [pc, #312]	@ 87800144 <FIQ_Handler+0xc>
87800008:	e59ff138 	ldr	pc, [pc, #312]	@ 87800148 <FIQ_Handler+0x10>
8780000c:	e59ff138 	ldr	pc, [pc, #312]	@ 8780014c <FIQ_Handler+0x14>
87800010:	e59ff138 	ldr	pc, [pc, #312]	@ 87800150 <FIQ_Handler+0x18>
87800014:	e59ff138 	ldr	pc, [pc, #312]	@ 87800154 <FIQ_Handler+0x1c>
87800018:	e59ff138 	ldr	pc, [pc, #312]	@ 87800158 <FIQ_Handler+0x20>
8780001c:	e59ff138 	ldr	pc, [pc, #312]	@ 8780015c <FIQ_Handler+0x24>

87800020 <Reset_Handler>:
87800020:	f10c0080 	cpsid	i
87800024:	ee110f10 	mrc	15, 0, r0, cr1, cr0, {0}
87800028:	e3c00a01 	bic	r0, r0, #4096	@ 0x1000
8780002c:	e3c00b02 	bic	r0, r0, #2048	@ 0x800
87800030:	e3c00004 	bic	r0, r0, #4
87800034:	e3c00002 	bic	r0, r0, #2
87800038:	e3c00001 	bic	r0, r0, #1
8780003c:	ee010f10 	mcr	15, 0, r0, cr1, cr0, {0}
87800040:	e59f0118 	ldr	r0, [pc, #280]	@ 87800160 <FIQ_Handler+0x28>
87800044:	f57ff04f 	dsb	sy
87800048:	f57ff06f 	isb	sy
8780004c:	ee0c0f10 	mcr	15, 0, r0, cr12, cr0, {0}
87800050:	f57ff04f 	dsb	sy
87800054:	f57ff06f 	isb	sy

87800058 <_bss_start>:
87800058:	87802eb4 			@ <UNDEFINED> instruction: 0x87802eb4

8780005c <_bss_end>:
8780005c:	87803bc8 	strhi	r3, [r0, r8, asr #23]
87800060:	e51f0010 	ldr	r0, [pc, #-16]	@ 87800058 <_bss_start>
87800064:	e51f1010 	ldr	r1, [pc, #-16]	@ 8780005c <_bss_end>
87800068:	e3a02000 	mov	r2, #0

8780006c <bss_loop>:
8780006c:	e8a00004 	stmia	r0!, {r2}
87800070:	e1500001 	cmp	r0, r1
87800074:	dafffffc 	ble	8780006c <bss_loop>
87800078:	e10f0000 	mrs	r0, CPSR
8780007c:	e3c0001f 	bic	r0, r0, #31
87800080:	e380001f 	orr	r0, r0, #31
87800084:	e129f000 	msr	CPSR_fc, r0
87800088:	e59fd0d4 	ldr	sp, [pc, #212]	@ 87800164 <FIQ_Handler+0x2c>
8780008c:	e10f0000 	mrs	r0, CPSR
87800090:	e3c0001f 	bic	r0, r0, #31
87800094:	e3800012 	orr	r0, r0, #18
87800098:	e129f000 	msr	CPSR_fc, r0
8780009c:	e59fd0c4 	ldr	sp, [pc, #196]	@ 87800168 <FIQ_Handler+0x30>
878000a0:	e10f0000 	mrs	r0, CPSR
878000a4:	e3c0001f 	bic	r0, r0, #31
878000a8:	e3800013 	orr	r0, r0, #19
878000ac:	e129f000 	msr	CPSR_fc, r0
878000b0:	e59fd0b4 	ldr	sp, [pc, #180]	@ 8780016c <FIQ_Handler+0x34>
878000b4:	f1080080 	cpsie	i
878000b8:	ea000aea 	b	87802c68 <__main_from_arm>

878000bc <Undefined_Handler>:
878000bc:	e59f0080 	ldr	r0, [pc, #128]	@ 87800144 <FIQ_Handler+0xc>
878000c0:	e12fff10 	bx	r0

878000c4 <SVC_Handler>:
878000c4:	e59f007c 	ldr	r0, [pc, #124]	@ 87800148 <FIQ_Handler+0x10>
878000c8:	e12fff10 	bx	r0

878000cc <RreAbort_Handler>:
878000cc:	e59f0078 	ldr	r0, [pc, #120]	@ 8780014c <FIQ_Handler+0x14>
878000d0:	e12fff10 	bx	r0

878000d4 <DataAbort_Handler>:
878000d4:	e59f0074 	ldr	r0, [pc, #116]	@ 87800150 <FIQ_Handler+0x18>
878000d8:	e12fff10 	bx	r0

878000dc <NotUsed_Handler>:
878000dc:	e59f0070 	ldr	r0, [pc, #112]	@ 87800154 <FIQ_Handler+0x1c>
878000e0:	e12fff10 	bx	r0

878000e4 <IRQ_Handler>:
878000e4:	e52de004 	push	{lr}		@ (str lr, [sp, #-4]!)
878000e8:	e92d100f 	push	{r0, r1, r2, r3, ip}
878000ec:	e14f0000 	mrs	r0, SPSR
878000f0:	e52d0004 	push	{r0}		@ (str r0, [sp, #-4]!)
878000f4:	ee9f1f10 	mrc	15, 4, r1, cr15, cr0, {0}
878000f8:	e2811a02 	add	r1, r1, #8192	@ 0x2000
878000fc:	e591000c 	ldr	r0, [r1, #12]
87800100:	e92d0003 	push	{r0, r1}
87800104:	f1020013 	cps	#19
87800108:	e52de004 	push	{lr}		@ (str lr, [sp, #-4]!)
8780010c:	e59f205c 	ldr	r2, [pc, #92]	@ 87800170 <FIQ_Handler+0x38>
87800110:	e12fff32 	blx	r2
87800114:	e49de004 	pop	{lr}		@ (ldr lr, [sp], #4)
87800118:	f1020012 	cps	#18
8780011c:	e8bd0003 	pop	{r0, r1}
87800120:	e5810010 	str	r0, [r1, #16]
87800124:	e49d0004 	pop	{r0}		@ (ldr r0, [sp], #4)
87800128:	e16ff000 	msr	SPSR_fsxc, r0
8780012c:	e8bd100f 	pop	{r0, r1, r2, r3, ip}
87800130:	e49de004 	pop	{lr}		@ (ldr lr, [sp], #4)
87800134:	e25ef004 	subs	pc, lr, #4

87800138 <FIQ_Handler>:
87800138:	e59f001c 	ldr	r0, [pc, #28]	@ 8780015c <FIQ_Handler+0x24>
8780013c:	e12fff10 	bx	r0
87800140:	87800020 	strhi	r0, [r0, r0, lsr #32]
87800144:	878000bc 			@ <UNDEFINED> instruction: 0x878000bc
87800148:	878000c4 	strhi	r0, [r0, r4, asr #1]
8780014c:	878000cc 	strhi	r0, [r0, ip, asr #1]
87800150:	878000d4 			@ <UNDEFINED> instruction: 0x878000d4
87800154:	878000dc 			@ <UNDEFINED> instruction: 0x878000dc
87800158:	878000e4 	strhi	r0, [r0, r4, ror #1]
8780015c:	87800138 			@ <UNDEFINED> instruction: 0x87800138
87800160:	87800000 	strhi	r0, [r0, r0]
87800164:	80600000 	rsbhi	r0, r0, r0
87800168:	80400000 	subhi	r0, r0, r0
8780016c:	80200000 	eorhi	r0, r0, r0
87800170:	878009d9 			@ <UNDEFINED> instruction: 0x878009d9
87800174:	00001e41 	andeq	r1, r0, r1, asr #28
87800178:	61656100 	cmnvs	r5, r0, lsl #2
8780017c:	01006962 	tsteq	r0, r2, ror #18
87800180:	00000014 	andeq	r0, r0, r4, lsl r0
87800184:	412d3705 			@ <UNDEFINED> instruction: 0x412d3705
87800188:	070a0600 	streq	r0, [sl, -r0, lsl #12]
8780018c:	09010841 	stmdbeq	r1, {r0, r6, fp}
87800190:	00040a02 	andeq	r0, r4, r2, lsl #20
87800194:	87802db4 			@ <UNDEFINED> instruction: 0x87802db4

87800198 <_GLOBAL_OFFSET_TABLE_>:
	...

878001a4 <beep_init>:
878001a4:	b510      	push	{r4, lr}
878001a6:	2300      	movs	r3, #0
878001a8:	f2c0 2329 	movt	r3, #553	@ 0x229
878001ac:	b084      	sub	sp, #16
878001ae:	2101      	movs	r1, #1
878001b0:	2000      	movs	r0, #0
878001b2:	2405      	movs	r4, #5
878001b4:	aa01      	add	r2, sp, #4
878001b6:	9002      	str	r0, [sp, #8]
878001b8:	9003      	str	r0, [sp, #12]
878001ba:	f44f 4040 	mov.w	r0, #49152	@ 0xc000
878001be:	f2c0 200a 	movt	r0, #522	@ 0x20a
878001c2:	60dc      	str	r4, [r3, #12]
878001c4:	f241 04b0 	movw	r4, #4272	@ 0x10b0
878001c8:	651c      	str	r4, [r3, #80]	@ 0x50
878001ca:	9101      	str	r1, [sp, #4]
878001cc:	f88d 1008 	strb.w	r1, [sp, #8]
878001d0:	f000 fb90 	bl	878008f4 <gpio_init>
878001d4:	b004      	add	sp, #16
878001d6:	bd10      	pop	{r4, pc}

878001d8 <beep_on>:
878001d8:	f44f 4040 	mov.w	r0, #49152	@ 0xc000
878001dc:	f2c0 200a 	movt	r0, #522	@ 0x20a
878001e0:	2200      	movs	r2, #0
878001e2:	2101      	movs	r1, #1
878001e4:	f000 bb06 	b.w	878007f4 <gpio_pinWrite>

878001e8 <beep_off>:
878001e8:	2201      	movs	r2, #1
878001ea:	f44f 4040 	mov.w	r0, #49152	@ 0xc000
878001ee:	f2c0 200a 	movt	r0, #522	@ 0x20a
878001f2:	4611      	mov	r1, r2
878001f4:	f000 bafe 	b.w	878007f4 <gpio_pinWrite>

878001f8 <beep_switch>:
878001f8:	4601      	mov	r1, r0
878001fa:	2801      	cmp	r0, #1
878001fc:	d009      	beq.n	87800212 <beep_switch+0x1a>
878001fe:	b100      	cbz	r0, 87800202 <beep_switch+0xa>
87800200:	4770      	bx	lr
87800202:	2201      	movs	r2, #1
87800204:	f44f 4040 	mov.w	r0, #49152	@ 0xc000
87800208:	f2c0 200a 	movt	r0, #522	@ 0x20a
8780020c:	4611      	mov	r1, r2
8780020e:	f000 baf1 	b.w	878007f4 <gpio_pinWrite>
87800212:	f44f 4040 	mov.w	r0, #49152	@ 0xc000
87800216:	f2c0 200a 	movt	r0, #522	@ 0x20a
8780021a:	2200      	movs	r2, #0
8780021c:	f000 baea 	b.w	878007f4 <gpio_pinWrite>

87800220 <key_init>:
87800220:	b500      	push	{lr}
87800222:	2200      	movs	r2, #0
87800224:	f2c0 220e 	movt	r2, #526	@ 0x20e
87800228:	b085      	sub	sp, #20
8780022a:	2300      	movs	r3, #0
8780022c:	2005      	movs	r0, #5
8780022e:	f24f 0180 	movw	r1, #61568	@ 0xf080
87800232:	9302      	str	r3, [sp, #8]
87800234:	9303      	str	r3, [sp, #12]
87800236:	f8c2 008c 	str.w	r0, [r2, #140]	@ 0x8c
8780023a:	f44f 4040 	mov.w	r0, #49152	@ 0xc000
8780023e:	f2c0 2009 	movt	r0, #521	@ 0x209
87800242:	f8c2 1318 	str.w	r1, [r2, #792]	@ 0x318
87800246:	aa01      	add	r2, sp, #4
87800248:	2112      	movs	r1, #18
8780024a:	9301      	str	r3, [sp, #4]
8780024c:	f000 fb52 	bl	878008f4 <gpio_init>
87800250:	b005      	add	sp, #20
87800252:	f85d fb04 	ldr.w	pc, [sp], #4
87800256:	bf00      	nop

87800258 <key_get_status>:
87800258:	b510      	push	{r4, lr}
8780025a:	2112      	movs	r1, #18
8780025c:	f44f 4040 	mov.w	r0, #49152	@ 0xc000
87800260:	f2c0 2009 	movt	r0, #521	@ 0x209
87800264:	b082      	sub	sp, #8
87800266:	ac01      	add	r4, sp, #4
87800268:	2300      	movs	r3, #0
8780026a:	4622      	mov	r2, r4
8780026c:	9301      	str	r3, [sp, #4]
8780026e:	f000 facf 	bl	87800810 <gpio_pinRead>
87800272:	9b01      	ldr	r3, [sp, #4]
87800274:	2001      	movs	r0, #1
87800276:	b10b      	cbz	r3, 8780027c <key_get_status+0x24>
87800278:	b002      	add	sp, #8
8780027a:	bd10      	pop	{r4, pc}
8780027c:	200a      	movs	r0, #10
8780027e:	f000 fa73 	bl	87800768 <delay>
87800282:	4622      	mov	r2, r4
87800284:	2112      	movs	r1, #18
87800286:	f44f 4040 	mov.w	r0, #49152	@ 0xc000
8780028a:	f2c0 2009 	movt	r0, #521	@ 0x209
8780028e:	f000 fabf 	bl	87800810 <gpio_pinRead>
87800292:	9801      	ldr	r0, [sp, #4]
87800294:	3800      	subs	r0, #0
87800296:	bf18      	it	ne
87800298:	2001      	movne	r0, #1
8780029a:	b002      	add	sp, #8
8780029c:	bd10      	pop	{r4, pc}
8780029e:	bf00      	nop

878002a0 <gpio1_io18_irq_handler>:
878002a0:	b508      	push	{r3, lr}
878002a2:	f44f 5091 	mov.w	r0, #4640	@ 0x1220
878002a6:	f2c0 000a 	movt	r0, #10
878002aa:	f000 f96f 	bl	8780058c <epit1_restart>
878002ae:	f44f 4040 	mov.w	r0, #49152	@ 0xc000
878002b2:	f2c0 2009 	movt	r0, #521	@ 0x209
878002b6:	2112      	movs	r1, #18
878002b8:	e8bd 4008 	ldmia.w	sp!, {r3, lr}
878002bc:	f000 bac4 	b.w	87800848 <gpio_clear_interrupt_flag>

878002c0 <epit1_handler>:
878002c0:	b500      	push	{lr}
878002c2:	2300      	movs	r3, #0
878002c4:	f2c0 230d 	movt	r3, #525	@ 0x20d
878002c8:	b083      	sub	sp, #12
878002ca:	2200      	movs	r2, #0
878002cc:	9201      	str	r2, [sp, #4]
878002ce:	685b      	ldr	r3, [r3, #4]
878002d0:	07db      	lsls	r3, r3, #31
878002d2:	d409      	bmi.n	878002e8 <epit1_handler+0x28>
878002d4:	2300      	movs	r3, #0
878002d6:	f2c0 230d 	movt	r3, #525	@ 0x20d
878002da:	685a      	ldr	r2, [r3, #4]
878002dc:	f042 0201 	orr.w	r2, r2, #1
878002e0:	605a      	str	r2, [r3, #4]
878002e2:	b003      	add	sp, #12
878002e4:	f85d fb04 	ldr.w	pc, [sp], #4
878002e8:	f000 f948 	bl	8780057c <epit1_stop>
878002ec:	2112      	movs	r1, #18
878002ee:	aa01      	add	r2, sp, #4
878002f0:	f44f 4040 	mov.w	r0, #49152	@ 0xc000
878002f4:	f2c0 2009 	movt	r0, #521	@ 0x209
878002f8:	f000 fa8a 	bl	87800810 <gpio_pinRead>
878002fc:	9b01      	ldr	r3, [sp, #4]
878002fe:	2b00      	cmp	r3, #0
87800300:	d1e8      	bne.n	878002d4 <epit1_handler+0x14>
87800302:	4b05      	ldr	r3, [pc, #20]	@ (87800318 <epit1_handler+0x58>)
87800304:	447b      	add	r3, pc
87800306:	6818      	ldr	r0, [r3, #0]
87800308:	fab0 f080 	clz	r0, r0
8780030c:	0940      	lsrs	r0, r0, #5
8780030e:	6018      	str	r0, [r3, #0]
87800310:	f7ff ff72 	bl	878001f8 <beep_switch>
87800314:	e7de      	b.n	878002d4 <epit1_handler+0x14>
87800316:	bf00      	nop
87800318:	00002bac 	andeq	r2, r0, ip, lsr #23

8780031c <key_filter_init>:
8780031c:	b570      	push	{r4, r5, r6, lr}
8780031e:	2300      	movs	r3, #0
87800320:	f2c0 230e 	movt	r3, #526	@ 0x20e
87800324:	b084      	sub	sp, #16
87800326:	f44f 4640 	mov.w	r6, #49152	@ 0xc000
8780032a:	f2c0 2609 	movt	r6, #521	@ 0x209
8780032e:	2400      	movs	r4, #0
87800330:	2105      	movs	r1, #5
87800332:	4630      	mov	r0, r6
87800334:	9402      	str	r4, [sp, #8]
87800336:	f24f 0280 	movw	r2, #61568	@ 0xf080
8780033a:	f8c3 108c 	str.w	r1, [r3, #140]	@ 0x8c
8780033e:	2112      	movs	r1, #18
87800340:	f8c3 2318 	str.w	r2, [r3, #792]	@ 0x318
87800344:	aa01      	add	r2, sp, #4
87800346:	2304      	movs	r3, #4
87800348:	9401      	str	r4, [sp, #4]
8780034a:	9303      	str	r3, [sp, #12]
8780034c:	f000 fad2 	bl	878008f4 <gpio_init>
87800350:	ee9f 3f10 	mrc	15, 4, r3, cr15, cr0, {0}
87800354:	4625      	mov	r5, r4
87800356:	4918      	ldr	r1, [pc, #96]	@ (878003b8 <key_filter_init+0x9c>)
87800358:	f6cf 75ff 	movt	r5, #65535	@ 0xffff
8780035c:	2208      	movs	r2, #8
8780035e:	402b      	ands	r3, r5
87800360:	4479      	add	r1, pc
87800362:	f503 5380 	add.w	r3, r3, #4096	@ 0x1000
87800366:	2063      	movs	r0, #99	@ 0x63
87800368:	f8c3 210c 	str.w	r2, [r3, #268]	@ 0x10c
8780036c:	4622      	mov	r2, r4
8780036e:	f000 fb1f 	bl	878009b0 <sys_irq_handler_register>
87800372:	2112      	movs	r1, #18
87800374:	4630      	mov	r0, r6
87800376:	f000 fa57 	bl	87800828 <gpio_interrupt_enable>
8780037a:	4623      	mov	r3, r4
8780037c:	f2c0 230d 	movt	r3, #525	@ 0x20d
87800380:	210e      	movs	r1, #14
87800382:	f2c0 1100 	movt	r1, #256	@ 0x100
87800386:	f44f 5291 	mov.w	r2, #4640	@ 0x1220
8780038a:	f2c0 020a 	movt	r2, #10
8780038e:	601c      	str	r4, [r3, #0]
87800390:	6019      	str	r1, [r3, #0]
87800392:	609a      	str	r2, [r3, #8]
87800394:	60dc      	str	r4, [r3, #12]
87800396:	ee9f 3f10 	mrc	15, 4, r3, cr15, cr0, {0}
8780039a:	402b      	ands	r3, r5
8780039c:	4907      	ldr	r1, [pc, #28]	@ (878003bc <key_filter_init+0xa0>)
8780039e:	f503 5380 	add.w	r3, r3, #4096	@ 0x1000
878003a2:	f04f 7580 	mov.w	r5, #16777216	@ 0x1000000
878003a6:	4479      	add	r1, pc
878003a8:	4622      	mov	r2, r4
878003aa:	2058      	movs	r0, #88	@ 0x58
878003ac:	f8c3 5108 	str.w	r5, [r3, #264]	@ 0x108
878003b0:	f000 fafe 	bl	878009b0 <sys_irq_handler_register>
878003b4:	b004      	add	sp, #16
878003b6:	bd70      	pop	{r4, r5, r6, pc}
878003b8:	ffffff3d 			@ <UNDEFINED> instruction: 0xffffff3d
878003bc:	ffffff17 			@ <UNDEFINED> instruction: 0xffffff17

878003c0 <led_init>:
878003c0:	b510      	push	{r4, lr}
878003c2:	2300      	movs	r3, #0
878003c4:	f2c0 230e 	movt	r3, #526	@ 0x20e
878003c8:	b084      	sub	sp, #16
878003ca:	2100      	movs	r1, #0
878003cc:	2405      	movs	r4, #5
878003ce:	aa01      	add	r2, sp, #4
878003d0:	f44f 4040 	mov.w	r0, #49152	@ 0xc000
878003d4:	f2c0 2009 	movt	r0, #521	@ 0x209
878003d8:	9102      	str	r1, [sp, #8]
878003da:	9103      	str	r1, [sp, #12]
878003dc:	f241 01b0 	movw	r1, #4272	@ 0x10b0
878003e0:	669c      	str	r4, [r3, #104]	@ 0x68
878003e2:	f8c3 12f4 	str.w	r1, [r3, #756]	@ 0x2f4
878003e6:	2103      	movs	r1, #3
878003e8:	2301      	movs	r3, #1
878003ea:	9301      	str	r3, [sp, #4]
878003ec:	f88d 3008 	strb.w	r3, [sp, #8]
878003f0:	f000 fa80 	bl	878008f4 <gpio_init>
878003f4:	b004      	add	sp, #16
878003f6:	bd10      	pop	{r4, pc}

878003f8 <led_on>:
878003f8:	f44f 4040 	mov.w	r0, #49152	@ 0xc000
878003fc:	f2c0 2009 	movt	r0, #521	@ 0x209
87800400:	2200      	movs	r2, #0
87800402:	2103      	movs	r1, #3
87800404:	f000 b9f6 	b.w	878007f4 <gpio_pinWrite>

87800408 <led_off>:
87800408:	f44f 4040 	mov.w	r0, #49152	@ 0xc000
8780040c:	f2c0 2009 	movt	r0, #521	@ 0x209
87800410:	2201      	movs	r2, #1
87800412:	2103      	movs	r1, #3
87800414:	f000 b9ee 	b.w	878007f4 <gpio_pinWrite>

87800418 <led_switch>:
87800418:	2801      	cmp	r0, #1
8780041a:	d009      	beq.n	87800430 <led_switch+0x18>
8780041c:	b100      	cbz	r0, 87800420 <led_switch+0x8>
8780041e:	4770      	bx	lr
87800420:	f44f 4040 	mov.w	r0, #49152	@ 0xc000
87800424:	f2c0 2009 	movt	r0, #521	@ 0x209
87800428:	2201      	movs	r2, #1
8780042a:	2103      	movs	r1, #3
8780042c:	f000 b9e2 	b.w	878007f4 <gpio_pinWrite>
87800430:	f44f 4040 	mov.w	r0, #49152	@ 0xc000
87800434:	f2c0 2009 	movt	r0, #521	@ 0x209
87800438:	2200      	movs	r2, #0
8780043a:	2103      	movs	r1, #3
8780043c:	f000 b9da 	b.w	878007f4 <gpio_pinWrite>

87800440 <gpio1_io18_irq_handler>:
87800440:	b500      	push	{lr}
87800442:	200a      	movs	r0, #10
87800444:	2300      	movs	r3, #0
87800446:	b083      	sub	sp, #12
87800448:	9301      	str	r3, [sp, #4]
8780044a:	f000 f98d 	bl	87800768 <delay>
8780044e:	2112      	movs	r1, #18
87800450:	aa01      	add	r2, sp, #4
87800452:	f44f 4040 	mov.w	r0, #49152	@ 0xc000
87800456:	f2c0 2009 	movt	r0, #521	@ 0x209
8780045a:	f000 f9d9 	bl	87800810 <gpio_pinRead>
8780045e:	9b01      	ldr	r3, [sp, #4]
87800460:	b14b      	cbz	r3, 87800476 <gpio1_io18_irq_handler+0x36>
87800462:	2112      	movs	r1, #18
87800464:	f44f 4040 	mov.w	r0, #49152	@ 0xc000
87800468:	f2c0 2009 	movt	r0, #521	@ 0x209
8780046c:	f000 f9ec 	bl	87800848 <gpio_clear_interrupt_flag>
87800470:	b003      	add	sp, #12
87800472:	f85d fb04 	ldr.w	pc, [sp], #4
87800476:	4b05      	ldr	r3, [pc, #20]	@ (8780048c <gpio1_io18_irq_handler+0x4c>)
87800478:	447b      	add	r3, pc
8780047a:	7818      	ldrb	r0, [r3, #0]
8780047c:	fab0 f080 	clz	r0, r0
87800480:	0940      	lsrs	r0, r0, #5
87800482:	7018      	strb	r0, [r3, #0]
87800484:	f7ff feb8 	bl	878001f8 <beep_switch>
87800488:	e7eb      	b.n	87800462 <gpio1_io18_irq_handler+0x22>
8780048a:	bf00      	nop
8780048c:	00002a3c 	andeq	r2, r0, ip, lsr sl

87800490 <ext_interrupt_init>:
87800490:	b530      	push	{r4, r5, lr}
87800492:	2300      	movs	r3, #0
87800494:	f2c0 230e 	movt	r3, #526	@ 0x20e
87800498:	b085      	sub	sp, #20
8780049a:	f44f 4440 	mov.w	r4, #49152	@ 0xc000
8780049e:	f2c0 2409 	movt	r4, #521	@ 0x209
878004a2:	2500      	movs	r5, #0
878004a4:	2105      	movs	r1, #5
878004a6:	4620      	mov	r0, r4
878004a8:	9502      	str	r5, [sp, #8]
878004aa:	f24f 0280 	movw	r2, #61568	@ 0xf080
878004ae:	f8c3 108c 	str.w	r1, [r3, #140]	@ 0x8c
878004b2:	2112      	movs	r1, #18
878004b4:	f8c3 2318 	str.w	r2, [r3, #792]	@ 0x318
878004b8:	aa01      	add	r2, sp, #4
878004ba:	2304      	movs	r3, #4
878004bc:	9501      	str	r5, [sp, #4]
878004be:	9303      	str	r3, [sp, #12]
878004c0:	f000 fa18 	bl	878008f4 <gpio_init>
878004c4:	ee9f 3f10 	mrc	15, 4, r3, cr15, cr0, {0}
878004c8:	f36f 030f 	bfc	r3, #0, #16
878004cc:	4908      	ldr	r1, [pc, #32]	@ (878004f0 <ext_interrupt_init+0x60>)
878004ce:	f503 5380 	add.w	r3, r3, #4096	@ 0x1000
878004d2:	462a      	mov	r2, r5
878004d4:	2008      	movs	r0, #8
878004d6:	4479      	add	r1, pc
878004d8:	f8c3 010c 	str.w	r0, [r3, #268]	@ 0x10c
878004dc:	2063      	movs	r0, #99	@ 0x63
878004de:	f000 fa67 	bl	878009b0 <sys_irq_handler_register>
878004e2:	2112      	movs	r1, #18
878004e4:	4620      	mov	r0, r4
878004e6:	f000 f99f 	bl	87800828 <gpio_interrupt_enable>
878004ea:	b005      	add	sp, #20
878004ec:	bd30      	pop	{r4, r5, pc}
878004ee:	bf00      	nop
878004f0:	ffffff67 			@ <UNDEFINED> instruction: 0xffffff67

878004f4 <epit1_handler>:
878004f4:	b508      	push	{r3, lr}
878004f6:	2200      	movs	r2, #0
878004f8:	f2c0 220d 	movt	r2, #525	@ 0x20d
878004fc:	4b0a      	ldr	r3, [pc, #40]	@ (87800528 <epit1_handler+0x34>)
878004fe:	447b      	add	r3, pc
87800500:	7818      	ldrb	r0, [r3, #0]
87800502:	fab0 f080 	clz	r0, r0
87800506:	0940      	lsrs	r0, r0, #5
87800508:	7018      	strb	r0, [r3, #0]
8780050a:	6853      	ldr	r3, [r2, #4]
8780050c:	07db      	lsls	r3, r3, #31
8780050e:	d407      	bmi.n	87800520 <epit1_handler+0x2c>
87800510:	2300      	movs	r3, #0
87800512:	f2c0 230d 	movt	r3, #525	@ 0x20d
87800516:	685a      	ldr	r2, [r3, #4]
87800518:	f042 0201 	orr.w	r2, r2, #1
8780051c:	605a      	str	r2, [r3, #4]
8780051e:	bd08      	pop	{r3, pc}
87800520:	f7ff ff7a 	bl	87800418 <led_switch>
87800524:	e7f4      	b.n	87800510 <epit1_handler+0x1c>
87800526:	bf00      	nop
87800528:	000029b7 			@ <UNDEFINED> instruction: 0x000029b7

8780052c <epit1_init>:
8780052c:	b510      	push	{r4, lr}
8780052e:	f640 73ff 	movw	r3, #4095	@ 0xfff
87800532:	2400      	movs	r4, #0
87800534:	f2c0 240d 	movt	r4, #525	@ 0x20d
87800538:	4298      	cmp	r0, r3
8780053a:	bf28      	it	cs
8780053c:	4618      	movcs	r0, r3
8780053e:	230e      	movs	r3, #14
87800540:	f2c0 1300 	movt	r3, #256	@ 0x100
87800544:	2200      	movs	r2, #0
87800546:	ea43 1300 	orr.w	r3, r3, r0, lsl #4
8780054a:	6023      	str	r3, [r4, #0]
8780054c:	60a1      	str	r1, [r4, #8]
8780054e:	60e2      	str	r2, [r4, #12]
87800550:	ee9f 3f10 	mrc	15, 4, r3, cr15, cr0, {0}
87800554:	f36f 030f 	bfc	r3, #0, #16
87800558:	4907      	ldr	r1, [pc, #28]	@ (87800578 <epit1_init+0x4c>)
8780055a:	f503 5380 	add.w	r3, r3, #4096	@ 0x1000
8780055e:	f04f 7080 	mov.w	r0, #16777216	@ 0x1000000
87800562:	4479      	add	r1, pc
87800564:	f8c3 0108 	str.w	r0, [r3, #264]	@ 0x108
87800568:	2058      	movs	r0, #88	@ 0x58
8780056a:	f000 fa21 	bl	878009b0 <sys_irq_handler_register>
8780056e:	6823      	ldr	r3, [r4, #0]
87800570:	f043 0301 	orr.w	r3, r3, #1
87800574:	6023      	str	r3, [r4, #0]
87800576:	bd10      	pop	{r4, pc}
87800578:	ffffff8f 			@ <UNDEFINED> instruction: 0xffffff8f

8780057c <epit1_stop>:
8780057c:	2300      	movs	r3, #0
8780057e:	f2c0 230d 	movt	r3, #525	@ 0x20d
87800582:	681a      	ldr	r2, [r3, #0]
87800584:	f022 0201 	bic.w	r2, r2, #1
87800588:	601a      	str	r2, [r3, #0]
8780058a:	4770      	bx	lr

8780058c <epit1_restart>:
8780058c:	2300      	movs	r3, #0
8780058e:	f2c0 230d 	movt	r3, #525	@ 0x20d
87800592:	681a      	ldr	r2, [r3, #0]
87800594:	f022 0201 	bic.w	r2, r2, #1
87800598:	601a      	str	r2, [r3, #0]
8780059a:	6098      	str	r0, [r3, #8]
8780059c:	681a      	ldr	r2, [r3, #0]
8780059e:	f042 0201 	orr.w	r2, r2, #1
878005a2:	601a      	str	r2, [r3, #0]
878005a4:	4770      	bx	lr
878005a6:	bf00      	nop

878005a8 <gpt1_handler>:
878005a8:	b508      	push	{r3, lr}
878005aa:	f44f 4300 	mov.w	r3, #32768	@ 0x8000
878005ae:	f2c0 2309 	movt	r3, #521	@ 0x209
878005b2:	689b      	ldr	r3, [r3, #8]
878005b4:	07db      	lsls	r3, r3, #31
878005b6:	d408      	bmi.n	878005ca <gpt1_handler+0x22>
878005b8:	f44f 4300 	mov.w	r3, #32768	@ 0x8000
878005bc:	f2c0 2309 	movt	r3, #521	@ 0x209
878005c0:	689a      	ldr	r2, [r3, #8]
878005c2:	f042 0201 	orr.w	r2, r2, #1
878005c6:	609a      	str	r2, [r3, #8]
878005c8:	bd08      	pop	{r3, pc}
878005ca:	4b05      	ldr	r3, [pc, #20]	@ (878005e0 <gpt1_handler+0x38>)
878005cc:	447b      	add	r3, pc
878005ce:	6818      	ldr	r0, [r3, #0]
878005d0:	fab0 f080 	clz	r0, r0
878005d4:	0940      	lsrs	r0, r0, #5
878005d6:	6018      	str	r0, [r3, #0]
878005d8:	f7ff ff1e 	bl	87800418 <led_switch>
878005dc:	e7ec      	b.n	878005b8 <gpt1_handler+0x10>
878005de:	bf00      	nop
878005e0:	000028ec 	andeq	r2, r0, ip, ror #17

878005e4 <gpt1_timer_init>:
878005e4:	b510      	push	{r4, lr}
878005e6:	f44f 4400 	mov.w	r4, #32768	@ 0x8000
878005ea:	f2c0 2409 	movt	r4, #521	@ 0x209
878005ee:	2200      	movs	r2, #0
878005f0:	f44f 4300 	mov.w	r3, #32768	@ 0x8000
878005f4:	6022      	str	r2, [r4, #0]
878005f6:	6023      	str	r3, [r4, #0]
878005f8:	6822      	ldr	r2, [r4, #0]
878005fa:	f412 4200 	ands.w	r2, r2, #32768	@ 0x8000
878005fe:	d1fb      	bne.n	878005f8 <gpt1_timer_init+0x14>
87800600:	2142      	movs	r1, #66	@ 0x42
87800602:	2341      	movs	r3, #65	@ 0x41
87800604:	6021      	str	r1, [r4, #0]
87800606:	2101      	movs	r1, #1
87800608:	6063      	str	r3, [r4, #4]
8780060a:	f24a 1320 	movw	r3, #41248	@ 0xa120
8780060e:	f2c0 0307 	movt	r3, #7
87800612:	6123      	str	r3, [r4, #16]
87800614:	60e1      	str	r1, [r4, #12]
87800616:	ee9f 3f10 	mrc	15, 4, r3, cr15, cr0, {0}
8780061a:	f36f 030f 	bfc	r3, #0, #16
8780061e:	4908      	ldr	r1, [pc, #32]	@ (87800640 <gpt1_timer_init+0x5c>)
87800620:	f503 5380 	add.w	r3, r3, #4096	@ 0x1000
87800624:	f44f 0000 	mov.w	r0, #8388608	@ 0x800000
87800628:	4479      	add	r1, pc
8780062a:	f8c3 0108 	str.w	r0, [r3, #264]	@ 0x108
8780062e:	2057      	movs	r0, #87	@ 0x57
87800630:	f000 f9be 	bl	878009b0 <sys_irq_handler_register>
87800634:	6823      	ldr	r3, [r4, #0]
87800636:	f043 0301 	orr.w	r3, r3, #1
8780063a:	6023      	str	r3, [r4, #0]
8780063c:	bd10      	pop	{r4, pc}
8780063e:	bf00      	nop
87800640:	ffffff7d 			@ <UNDEFINED> instruction: 0xffffff7d

87800644 <gpt1_counter_init>:
87800644:	f44f 4200 	mov.w	r2, #32768	@ 0x8000
87800648:	f2c0 2209 	movt	r2, #521	@ 0x209
8780064c:	2100      	movs	r1, #0
8780064e:	f44f 4300 	mov.w	r3, #32768	@ 0x8000
87800652:	6011      	str	r1, [r2, #0]
87800654:	6013      	str	r3, [r2, #0]
87800656:	6813      	ldr	r3, [r2, #0]
87800658:	041b      	lsls	r3, r3, #16
8780065a:	d4fc      	bmi.n	87800656 <gpt1_counter_init+0x12>
8780065c:	2341      	movs	r3, #65	@ 0x41
8780065e:	2142      	movs	r1, #66	@ 0x42
87800660:	6011      	str	r1, [r2, #0]
87800662:	6053      	str	r3, [r2, #4]
87800664:	6813      	ldr	r3, [r2, #0]
87800666:	f043 0301 	orr.w	r3, r3, #1
8780066a:	6013      	str	r3, [r2, #0]
8780066c:	4770      	bx	lr
8780066e:	bf00      	nop

87800670 <clk_enable>:
87800670:	f44f 4380 	mov.w	r3, #16384	@ 0x4000
87800674:	f2c0 230c 	movt	r3, #524	@ 0x20c
87800678:	f04f 32ff 	mov.w	r2, #4294967295	@ 0xffffffff
8780067c:	669a      	str	r2, [r3, #104]	@ 0x68
8780067e:	66da      	str	r2, [r3, #108]	@ 0x6c
87800680:	671a      	str	r2, [r3, #112]	@ 0x70
87800682:	675a      	str	r2, [r3, #116]	@ 0x74
87800684:	679a      	str	r2, [r3, #120]	@ 0x78
87800686:	67da      	str	r2, [r3, #124]	@ 0x7c
87800688:	f8c3 2080 	str.w	r2, [r3, #128]	@ 0x80
8780068c:	4770      	bx	lr
8780068e:	bf00      	nop

87800690 <imx6ull_clkInit>:
87800690:	f44f 4380 	mov.w	r3, #16384	@ 0x4000
87800694:	f2c0 230c 	movt	r3, #524	@ 0x20c
87800698:	b410      	push	{r4}
8780069a:	68da      	ldr	r2, [r3, #12]
8780069c:	0751      	lsls	r1, r2, #29
8780069e:	d407      	bmi.n	878006b0 <imx6ull_clkInit+0x20>
878006a0:	68da      	ldr	r2, [r3, #12]
878006a2:	f422 7280 	bic.w	r2, r2, #256	@ 0x100
878006a6:	60da      	str	r2, [r3, #12]
878006a8:	68da      	ldr	r2, [r3, #12]
878006aa:	f042 0204 	orr.w	r2, r2, #4
878006ae:	60da      	str	r2, [r3, #12]
878006b0:	f44f 4200 	mov.w	r2, #32768	@ 0x8000
878006b4:	f2c0 220c 	movt	r2, #524	@ 0x20c
878006b8:	f44f 4380 	mov.w	r3, #16384	@ 0x4000
878006bc:	f2c0 230c 	movt	r3, #524	@ 0x20c
878006c0:	2101      	movs	r1, #1
878006c2:	f242 0058 	movw	r0, #8280	@ 0x2058
878006c6:	6010      	str	r0, [r2, #0]
878006c8:	f241 001b 	movw	r0, #4123	@ 0x101b
878006cc:	f2c2 0018 	movt	r0, #8216	@ 0x2018
878006d0:	6119      	str	r1, [r3, #16]
878006d2:	f241 010c 	movw	r1, #4108	@ 0x100c
878006d6:	f2c1 3111 	movt	r1, #4881	@ 0x1311
878006da:	68dc      	ldr	r4, [r3, #12]
878006dc:	f024 0404 	bic.w	r4, r4, #4
878006e0:	60dc      	str	r4, [r3, #12]
878006e2:	f8d2 4100 	ldr.w	r4, [r2, #256]	@ 0x100
878006e6:	f004 3cc0 	and.w	ip, r4, #3233857728	@ 0xc0c0c0c0
878006ea:	ea4c 0000 	orr.w	r0, ip, r0
878006ee:	f8c2 0100 	str.w	r0, [r2, #256]	@ 0x100
878006f2:	f8d2 00f0 	ldr.w	r0, [r2, #240]	@ 0xf0
878006f6:	f000 30c0 	and.w	r0, r0, #3233857728	@ 0xc0c0c0c0
878006fa:	4301      	orrs	r1, r0
878006fc:	f8c2 10f0 	str.w	r1, [r2, #240]	@ 0xf0
87800700:	699a      	ldr	r2, [r3, #24]
87800702:	f422 2240 	bic.w	r2, r2, #786432	@ 0xc0000
87800706:	619a      	str	r2, [r3, #24]
87800708:	699a      	ldr	r2, [r3, #24]
8780070a:	f442 2280 	orr.w	r2, r2, #262144	@ 0x40000
8780070e:	619a      	str	r2, [r3, #24]
87800710:	695a      	ldr	r2, [r3, #20]
87800712:	f022 7200 	bic.w	r2, r2, #33554432	@ 0x2000000
87800716:	615a      	str	r2, [r3, #20]
87800718:	6c9a      	ldr	r2, [r3, #72]	@ 0x48
8780071a:	0692      	lsls	r2, r2, #26
8780071c:	d4fc      	bmi.n	87800718 <imx6ull_clkInit+0x88>
8780071e:	695a      	ldr	r2, [r3, #20]
87800720:	f85d 4b04 	ldr.w	r4, [sp], #4
87800724:	f422 7240 	bic.w	r2, r2, #768	@ 0x300
87800728:	615a      	str	r2, [r3, #20]
8780072a:	695a      	ldr	r2, [r3, #20]
8780072c:	f442 7280 	orr.w	r2, r2, #256	@ 0x100
87800730:	615a      	str	r2, [r3, #20]
87800732:	69da      	ldr	r2, [r3, #28]
87800734:	f022 0240 	bic.w	r2, r2, #64	@ 0x40
87800738:	61da      	str	r2, [r3, #28]
8780073a:	69da      	ldr	r2, [r3, #28]
8780073c:	f022 023f 	bic.w	r2, r2, #63	@ 0x3f
87800740:	61da      	str	r2, [r3, #28]
87800742:	6a5a      	ldr	r2, [r3, #36]	@ 0x24
87800744:	f022 0240 	bic.w	r2, r2, #64	@ 0x40
87800748:	625a      	str	r2, [r3, #36]	@ 0x24
8780074a:	6a5a      	ldr	r2, [r3, #36]	@ 0x24
8780074c:	f022 023f 	bic.w	r2, r2, #63	@ 0x3f
87800750:	625a      	str	r2, [r3, #36]	@ 0x24
87800752:	4770      	bx	lr

87800754 <delay_short>:
87800754:	b082      	sub	sp, #8
87800756:	9001      	str	r0, [sp, #4]
87800758:	9b01      	ldr	r3, [sp, #4]
8780075a:	1e5a      	subs	r2, r3, #1
8780075c:	9201      	str	r2, [sp, #4]
8780075e:	2b00      	cmp	r3, #0
87800760:	d1fa      	bne.n	87800758 <delay_short+0x4>
87800762:	b002      	add	sp, #8
87800764:	4770      	bx	lr
87800766:	bf00      	nop

87800768 <delay>:
87800768:	b082      	sub	sp, #8
8780076a:	9001      	str	r0, [sp, #4]
8780076c:	9b01      	ldr	r3, [sp, #4]
8780076e:	1e5a      	subs	r2, r3, #1
87800770:	9201      	str	r2, [sp, #4]
87800772:	b153      	cbz	r3, 8780078a <delay+0x22>
87800774:	f240 73ff 	movw	r3, #2047	@ 0x7ff
87800778:	461a      	mov	r2, r3
8780077a:	3b01      	subs	r3, #1
8780077c:	2a00      	cmp	r2, #0
8780077e:	d1fb      	bne.n	87800778 <delay+0x10>
87800780:	9b01      	ldr	r3, [sp, #4]
87800782:	1e5a      	subs	r2, r3, #1
87800784:	9201      	str	r2, [sp, #4]
87800786:	2b00      	cmp	r3, #0
87800788:	d1f4      	bne.n	87800774 <delay+0xc>
8780078a:	b002      	add	sp, #8
8780078c:	4770      	bx	lr
8780078e:	bf00      	nop

87800790 <delay_us>:
87800790:	b500      	push	{lr}
87800792:	f44f 4e00 	mov.w	lr, #32768	@ 0x8000
87800796:	f2c0 2e09 	movt	lr, #521	@ 0x209
8780079a:	2200      	movs	r2, #0
8780079c:	f8de 3024 	ldr.w	r3, [lr, #36]	@ 0x24
878007a0:	4619      	mov	r1, r3
878007a2:	f8de 3024 	ldr.w	r3, [lr, #36]	@ 0x24
878007a6:	428b      	cmp	r3, r1
878007a8:	eb02 0c03 	add.w	ip, r2, r3
878007ac:	bf18      	it	ne
878007ae:	ebac 0201 	subne.w	r2, ip, r1
878007b2:	4290      	cmp	r0, r2
878007b4:	d8f4      	bhi.n	878007a0 <delay_us+0x10>
878007b6:	f85d fb04 	ldr.w	pc, [sp], #4
878007ba:	bf00      	nop

878007bc <delay_ms>:
878007bc:	b1c8      	cbz	r0, 878007f2 <delay_ms+0x36>
878007be:	b510      	push	{r4, lr}
878007c0:	4604      	mov	r4, r0
878007c2:	f44f 4e00 	mov.w	lr, #32768	@ 0x8000
878007c6:	f2c0 2e09 	movt	lr, #521	@ 0x209
878007ca:	2000      	movs	r0, #0
878007cc:	f8de 1024 	ldr.w	r1, [lr, #36]	@ 0x24
878007d0:	2200      	movs	r2, #0
878007d2:	f8de 3024 	ldr.w	r3, [lr, #36]	@ 0x24
878007d6:	eb02 0c03 	add.w	ip, r2, r3
878007da:	4299      	cmp	r1, r3
878007dc:	d0f9      	beq.n	878007d2 <delay_ms+0x16>
878007de:	ebac 0201 	sub.w	r2, ip, r1
878007e2:	4619      	mov	r1, r3
878007e4:	f5b2 7f7a 	cmp.w	r2, #1000	@ 0x3e8
878007e8:	d3f3      	bcc.n	878007d2 <delay_ms+0x16>
878007ea:	3001      	adds	r0, #1
878007ec:	4284      	cmp	r4, r0
878007ee:	d1ed      	bne.n	878007cc <delay_ms+0x10>
878007f0:	bd10      	pop	{r4, pc}
878007f2:	4770      	bx	lr

878007f4 <gpio_pinWrite>:
878007f4:	b150      	cbz	r0, 8780080c <gpio_pinWrite+0x18>
878007f6:	2301      	movs	r3, #1
878007f8:	408b      	lsls	r3, r1
878007fa:	b922      	cbnz	r2, 87800806 <gpio_pinWrite+0x12>
878007fc:	6802      	ldr	r2, [r0, #0]
878007fe:	ea22 0303 	bic.w	r3, r2, r3
87800802:	6003      	str	r3, [r0, #0]
87800804:	4770      	bx	lr
87800806:	6802      	ldr	r2, [r0, #0]
87800808:	4313      	orrs	r3, r2
8780080a:	6003      	str	r3, [r0, #0]
8780080c:	4770      	bx	lr
8780080e:	bf00      	nop

87800810 <gpio_pinRead>:
87800810:	2a00      	cmp	r2, #0
87800812:	bf18      	it	ne
87800814:	2800      	cmpne	r0, #0
87800816:	bf1f      	itttt	ne
87800818:	6803      	ldrne	r3, [r0, #0]
8780081a:	fa23 f101 	lsrne.w	r1, r3, r1
8780081e:	f001 0101 	andne.w	r1, r1, #1
87800822:	6011      	strne	r1, [r2, #0]
87800824:	4770      	bx	lr
87800826:	bf00      	nop

87800828 <gpio_interrupt_enable>:
87800828:	b128      	cbz	r0, 87800836 <gpio_interrupt_enable+0xe>
8780082a:	2301      	movs	r3, #1
8780082c:	6942      	ldr	r2, [r0, #20]
8780082e:	fa03 f101 	lsl.w	r1, r3, r1
87800832:	4311      	orrs	r1, r2
87800834:	6141      	str	r1, [r0, #20]
87800836:	4770      	bx	lr

87800838 <gpio_interrupt_disable>:
87800838:	b128      	cbz	r0, 87800846 <gpio_interrupt_disable+0xe>
8780083a:	2201      	movs	r2, #1
8780083c:	6943      	ldr	r3, [r0, #20]
8780083e:	408a      	lsls	r2, r1
87800840:	ea23 0302 	bic.w	r3, r3, r2
87800844:	6143      	str	r3, [r0, #20]
87800846:	4770      	bx	lr

87800848 <gpio_clear_interrupt_flag>:
87800848:	b128      	cbz	r0, 87800856 <gpio_clear_interrupt_flag+0xe>
8780084a:	2301      	movs	r3, #1
8780084c:	6982      	ldr	r2, [r0, #24]
8780084e:	fa03 f101 	lsl.w	r1, r3, r1
87800852:	4311      	orrs	r1, r2
87800854:	6181      	str	r1, [r0, #24]
87800856:	4770      	bx	lr

87800858 <gpio_interrupt_config_init>:
87800858:	2800      	cmp	r0, #0
8780085a:	d049      	beq.n	878008f0 <gpio_interrupt_config_init+0x98>
8780085c:	2301      	movs	r3, #1
8780085e:	b410      	push	{r4}
87800860:	69c4      	ldr	r4, [r0, #28]
87800862:	290f      	cmp	r1, #15
87800864:	fa03 f301 	lsl.w	r3, r3, r1
87800868:	f102 32ff 	add.w	r2, r2, #4294967295	@ 0xffffffff
8780086c:	ea24 0403 	bic.w	r4, r4, r3
87800870:	bf88      	it	hi
87800872:	3910      	subhi	r1, #16
87800874:	61c4      	str	r4, [r0, #28]
87800876:	bf94      	ite	ls
87800878:	f100 040c 	addls.w	r4, r0, #12
8780087c:	f100 0410 	addhi.w	r4, r0, #16
87800880:	2a04      	cmp	r2, #4
87800882:	d810      	bhi.n	878008a6 <gpio_interrupt_config_init+0x4e>
87800884:	e8df f002 	tbb	[pc, r2]
87800888:	27220318 			@ <UNDEFINED> instruction: 0x27220318
8780088c:	68220012 	stmdavs	r2!, {r1, r4}
87800890:	0049      	lsls	r1, r1, #1
87800892:	2003      	movs	r0, #3
87800894:	2301      	movs	r3, #1
87800896:	4088      	lsls	r0, r1
87800898:	ea22 0200 	bic.w	r2, r2, r0
8780089c:	6022      	str	r2, [r4, #0]
8780089e:	408b      	lsls	r3, r1
878008a0:	6822      	ldr	r2, [r4, #0]
878008a2:	4313      	orrs	r3, r2
878008a4:	6023      	str	r3, [r4, #0]
878008a6:	f85d 4b04 	ldr.w	r4, [sp], #4
878008aa:	4770      	bx	lr
878008ac:	69c2      	ldr	r2, [r0, #28]
878008ae:	f85d 4b04 	ldr.w	r4, [sp], #4
878008b2:	4313      	orrs	r3, r2
878008b4:	61c3      	str	r3, [r0, #28]
878008b6:	4770      	bx	lr
878008b8:	0049      	lsls	r1, r1, #1
878008ba:	2203      	movs	r2, #3
878008bc:	6823      	ldr	r3, [r4, #0]
878008be:	408a      	lsls	r2, r1
878008c0:	ea23 0302 	bic.w	r3, r3, r2
878008c4:	6023      	str	r3, [r4, #0]
878008c6:	f85d 4b04 	ldr.w	r4, [sp], #4
878008ca:	4770      	bx	lr
878008cc:	6822      	ldr	r2, [r4, #0]
878008ce:	0049      	lsls	r1, r1, #1
878008d0:	2003      	movs	r0, #3
878008d2:	2302      	movs	r3, #2
878008d4:	e7df      	b.n	87800896 <gpio_interrupt_config_init+0x3e>
878008d6:	0049      	lsls	r1, r1, #1
878008d8:	2303      	movs	r3, #3
878008da:	6822      	ldr	r2, [r4, #0]
878008dc:	408b      	lsls	r3, r1
878008de:	ea22 0203 	bic.w	r2, r2, r3
878008e2:	6022      	str	r2, [r4, #0]
878008e4:	6822      	ldr	r2, [r4, #0]
878008e6:	4313      	orrs	r3, r2
878008e8:	6023      	str	r3, [r4, #0]
878008ea:	f85d 4b04 	ldr.w	r4, [sp], #4
878008ee:	4770      	bx	lr
878008f0:	4770      	bx	lr
878008f2:	bf00      	nop

878008f4 <gpio_init>:
878008f4:	2a00      	cmp	r2, #0
878008f6:	bf18      	it	ne
878008f8:	2800      	cmpne	r0, #0
878008fa:	d017      	beq.n	8780092c <gpio_init+0x38>
878008fc:	b410      	push	{r4}
878008fe:	2301      	movs	r3, #1
87800900:	6814      	ldr	r4, [r2, #0]
87800902:	408b      	lsls	r3, r1
87800904:	b944      	cbnz	r4, 87800918 <gpio_init+0x24>
87800906:	6844      	ldr	r4, [r0, #4]
87800908:	ea24 0303 	bic.w	r3, r4, r3
8780090c:	6043      	str	r3, [r0, #4]
8780090e:	6892      	ldr	r2, [r2, #8]
87800910:	f85d 4b04 	ldr.w	r4, [sp], #4
87800914:	f7ff bfa0 	b.w	87800858 <gpio_interrupt_config_init>
87800918:	6844      	ldr	r4, [r0, #4]
8780091a:	431c      	orrs	r4, r3
8780091c:	6044      	str	r4, [r0, #4]
8780091e:	7914      	ldrb	r4, [r2, #4]
87800920:	b92c      	cbnz	r4, 8780092e <gpio_init+0x3a>
87800922:	6804      	ldr	r4, [r0, #0]
87800924:	ea24 0303 	bic.w	r3, r4, r3
87800928:	6003      	str	r3, [r0, #0]
8780092a:	e7f0      	b.n	8780090e <gpio_init+0x1a>
8780092c:	4770      	bx	lr
8780092e:	6804      	ldr	r4, [r0, #0]
87800930:	4323      	orrs	r3, r4
87800932:	6003      	str	r3, [r0, #0]
87800934:	e7eb      	b.n	8780090e <gpio_init+0x1a>
87800936:	bf00      	nop

87800938 <default_irqHandler>:
87800938:	4770      	bx	lr
8780093a:	bf00      	nop

8780093c <interrupt_init>:
8780093c:	b530      	push	{r4, r5, lr}
8780093e:	ee9f 1f10 	mrc	15, 4, r1, cr15, cr0, {0}
87800942:	f36f 010f 	bfc	r1, #0, #16
87800946:	2300      	movs	r3, #0
87800948:	f501 5e80 	add.w	lr, r1, #4096	@ 0x1000
8780094c:	f04f 34ff 	mov.w	r4, #4294967295	@ 0xffffffff
87800950:	f8de 2004 	ldr.w	r2, [lr, #4]
87800954:	f002 0c1f 	and.w	ip, r2, #31
87800958:	f503 608c 	add.w	r0, r3, #1120	@ 0x460
8780095c:	459c      	cmp	ip, r3
8780095e:	f103 0301 	add.w	r3, r3, #1
87800962:	f841 4020 	str.w	r4, [r1, r0, lsl #2]
87800966:	d1f7      	bne.n	87800958 <interrupt_init+0x1c>
87800968:	4b0e      	ldr	r3, [pc, #56]	@ (878009a4 <interrupt_init+0x68>)
8780096a:	f501 5c00 	add.w	ip, r1, #8192	@ 0x2000
8780096e:	480e      	ldr	r0, [pc, #56]	@ (878009a8 <interrupt_init+0x6c>)
87800970:	2200      	movs	r2, #0
87800972:	447b      	add	r3, pc
87800974:	2401      	movs	r4, #1
87800976:	4478      	add	r0, pc
87800978:	f503 61a0 	add.w	r1, r3, #1280	@ 0x500
8780097c:	25f8      	movs	r5, #248	@ 0xf8
8780097e:	f8cc 5004 	str.w	r5, [ip, #4]
87800982:	2502      	movs	r5, #2
87800984:	f8cc 5008 	str.w	r5, [ip, #8]
87800988:	f8ce 4000 	str.w	r4, [lr]
8780098c:	f8cc 4000 	str.w	r4, [ip]
87800990:	e9c3 0200 	strd	r0, r2, [r3]
87800994:	3308      	adds	r3, #8
87800996:	428b      	cmp	r3, r1
87800998:	d1fa      	bne.n	87800990 <interrupt_init+0x54>
8780099a:	4b04      	ldr	r3, [pc, #16]	@ (878009ac <interrupt_init+0x70>)
8780099c:	447b      	add	r3, pc
8780099e:	f8c3 2500 	str.w	r2, [r3, #1280]	@ 0x500
878009a2:	bd30      	pop	{r4, r5, pc}
878009a4:	0000254a 	andeq	r2, r0, sl, asr #10
878009a8:	ffffffbf 			@ <UNDEFINED> instruction: 0xffffffbf
878009ac:	00002520 	andeq	r2, r0, r0, lsr #10

878009b0 <sys_irq_handler_register>:
878009b0:	fab1 f381 	clz	r3, r1
878009b4:	095b      	lsrs	r3, r3, #5
878009b6:	289f      	cmp	r0, #159	@ 0x9f
878009b8:	bfc8      	it	gt
878009ba:	f043 0301 	orrgt.w	r3, r3, #1
878009be:	b93b      	cbnz	r3, 878009d0 <sys_irq_handler_register+0x20>
878009c0:	4b04      	ldr	r3, [pc, #16]	@ (878009d4 <sys_irq_handler_register+0x24>)
878009c2:	447b      	add	r3, pc
878009c4:	eb03 0cc0 	add.w	ip, r3, r0, lsl #3
878009c8:	f843 1030 	str.w	r1, [r3, r0, lsl #3]
878009cc:	f8cc 2004 	str.w	r2, [ip, #4]
878009d0:	4770      	bx	lr
878009d2:	bf00      	nop
878009d4:	000024fa 	strdeq	r2, [r0], -sl

878009d8 <system_irqHandler>:
878009d8:	289f      	cmp	r0, #159	@ 0x9f
878009da:	d813      	bhi.n	87800a04 <system_irqHandler+0x2c>
878009dc:	b510      	push	{r4, lr}
878009de:	4c0a      	ldr	r4, [pc, #40]	@ (87800a08 <system_irqHandler+0x30>)
878009e0:	447c      	add	r4, pc
878009e2:	eb04 01c0 	add.w	r1, r4, r0, lsl #3
878009e6:	f8d4 2500 	ldr.w	r2, [r4, #1280]	@ 0x500
878009ea:	f854 3030 	ldr.w	r3, [r4, r0, lsl #3]
878009ee:	6849      	ldr	r1, [r1, #4]
878009f0:	3201      	adds	r2, #1
878009f2:	f8c4 2500 	str.w	r2, [r4, #1280]	@ 0x500
878009f6:	4798      	blx	r3
878009f8:	f8d4 3500 	ldr.w	r3, [r4, #1280]	@ 0x500
878009fc:	3b01      	subs	r3, #1
878009fe:	f8c4 3500 	str.w	r3, [r4, #1280]	@ 0x500
87800a02:	bd10      	pop	{r4, pc}
87800a04:	4770      	bx	lr
87800a06:	bf00      	nop
87800a08:	000024dc 	ldrdeq	r2, [r0], -ip

87800a0c <uart1_init>:
87800a0c:	2300      	movs	r3, #0
87800a0e:	f2c0 230e 	movt	r3, #526	@ 0x20e
87800a12:	e92d 4ff0 	stmdb	sp!, {r4, r5, r6, r7, r8, r9, sl, fp, lr}
87800a16:	2200      	movs	r2, #0
87800a18:	f2c0 2202 	movt	r2, #514	@ 0x202
87800a1c:	b083      	sub	sp, #12
87800a1e:	2000      	movs	r0, #0
87800a20:	f241 01b0 	movw	r1, #4272	@ 0x10b0
87800a24:	f8c3 0084 	str.w	r0, [r3, #132]	@ 0x84
87800a28:	2403      	movs	r4, #3
87800a2a:	f8c3 0088 	str.w	r0, [r3, #136]	@ 0x88
87800a2e:	f8c3 4624 	str.w	r4, [r3, #1572]	@ 0x624
87800a32:	f8c3 1310 	str.w	r1, [r3, #784]	@ 0x310
87800a36:	f8c3 1314 	str.w	r1, [r3, #788]	@ 0x314
87800a3a:	f8d2 3080 	ldr.w	r3, [r2, #128]	@ 0x80
87800a3e:	f023 0301 	bic.w	r3, r3, #1
87800a42:	f8c2 3080 	str.w	r3, [r2, #128]	@ 0x80
87800a46:	f8d2 3084 	ldr.w	r3, [r2, #132]	@ 0x84
87800a4a:	f023 0301 	bic.w	r3, r3, #1
87800a4e:	f8c2 3084 	str.w	r3, [r2, #132]	@ 0x84
87800a52:	f8d2 5084 	ldr.w	r5, [r2, #132]	@ 0x84
87800a56:	f015 0501 	ands.w	r5, r5, #1
87800a5a:	d0fa      	beq.n	87800a52 <uart1_init+0x46>
87800a5c:	2100      	movs	r1, #0
87800a5e:	f244 0326 	movw	r3, #16422	@ 0x4026
87800a62:	f8c2 1084 	str.w	r1, [r2, #132]	@ 0x84
87800a66:	f44f 4434 	mov.w	r4, #46080	@ 0xb400
87800a6a:	f2c0 44c4 	movt	r4, #1220	@ 0x4c4
87800a6e:	f8c2 3084 	str.w	r3, [r2, #132]	@ 0x84
87800a72:	f44f 1be1 	mov.w	fp, #1843200	@ 0x1c2000
87800a76:	4620      	mov	r0, r4
87800a78:	f8d2 3088 	ldr.w	r3, [r2, #136]	@ 0x88
87800a7c:	4659      	mov	r1, fp
87800a7e:	f043 0304 	orr.w	r3, r3, #4
87800a82:	f8c2 3088 	str.w	r3, [r2, #136]	@ 0x88
87800a86:	460c      	mov	r4, r1
87800a88:	f001 fe8c 	bl	878027a4 <__aeabi_uidivmod>
87800a8c:	4620      	mov	r0, r4
87800a8e:	2900      	cmp	r1, #0
87800a90:	d1f9      	bne.n	87800a86 <uart1_init+0x7a>
87800a92:	468b      	mov	fp, r1
87800a94:	f44f 4034 	mov.w	r0, #46080	@ 0xb400
87800a98:	f2c0 40c4 	movt	r0, #1220	@ 0x4c4
87800a9c:	4621      	mov	r1, r4
87800a9e:	f001 fd53 	bl	87802548 <__udivsi3>
87800aa2:	4621      	mov	r1, r4
87800aa4:	4607      	mov	r7, r0
87800aa6:	f44f 10e1 	mov.w	r0, #1843200	@ 0x1c2000
87800aaa:	f001 fd4d 	bl	87802548 <__udivsi3>
87800aae:	f64f 72f9 	movw	r2, #65529	@ 0xfff9
87800ab2:	f2c0 0206 	movt	r2, #6
87800ab6:	4606      	mov	r6, r0
87800ab8:	1e7b      	subs	r3, r7, #1
87800aba:	4297      	cmp	r7, r2
87800abc:	bf98      	it	ls
87800abe:	f5b0 3f80 	cmpls.w	r0, #65536	@ 0x10000
87800ac2:	d27b      	bcs.n	87800bbc <uart1_init+0x1b0>
87800ac4:	f248 0201 	movw	r2, #32769	@ 0x8001
87800ac8:	f2c8 0200 	movt	r2, #32768	@ 0x8000
87800acc:	ea4f 1907 	mov.w	r9, r7, lsl #4
87800ad0:	4680      	mov	r8, r0
87800ad2:	fba2 2403 	umull	r2, r4, r2, r3
87800ad6:	464a      	mov	r2, r9
87800ad8:	0be4      	lsrs	r4, r4, #15
87800ada:	1c63      	adds	r3, r4, #1
87800adc:	3c01      	subs	r4, #1
87800ade:	9301      	str	r3, [sp, #4]
87800ae0:	2c05      	cmp	r4, #5
87800ae2:	bf88      	it	hi
87800ae4:	f04f 0a05 	movhi.w	sl, #5
87800ae8:	d803      	bhi.n	87800af2 <uart1_init+0xe6>
87800aea:	495d      	ldr	r1, [pc, #372]	@ (87800c60 <uart1_init+0x254>)
87800aec:	4479      	add	r1, pc
87800aee:	f851 a024 	ldr.w	sl, [r1, r4, lsl #2]
87800af2:	f1b9 0f00 	cmp.w	r9, #0
87800af6:	f000 80ad 	beq.w	87800c54 <uart1_init+0x248>
87800afa:	f44f 4434 	mov.w	r4, #46080	@ 0xb400
87800afe:	f2c0 44c4 	movt	r4, #1220	@ 0x4c4
87800b02:	464a      	mov	r2, r9
87800b04:	2300      	movs	r3, #0
87800b06:	4620      	mov	r0, r4
87800b08:	4619      	mov	r1, r3
87800b0a:	4614      	mov	r4, r2
87800b0c:	4615      	mov	r5, r2
87800b0e:	f001 ffff 	bl	87802b10 <__aeabi_uldivmod>
87800b12:	2a00      	cmp	r2, #0
87800b14:	d1f6      	bne.n	87800b04 <uart1_init+0xf8>
87800b16:	4629      	mov	r1, r5
87800b18:	f44f 4034 	mov.w	r0, #46080	@ 0xb400
87800b1c:	f2c0 40c4 	movt	r0, #1220	@ 0x4c4
87800b20:	f001 fd12 	bl	87802548 <__udivsi3>
87800b24:	4629      	mov	r1, r5
87800b26:	4604      	mov	r4, r0
87800b28:	4648      	mov	r0, r9
87800b2a:	f001 fd0d 	bl	87802548 <__udivsi3>
87800b2e:	f04f 0900 	mov.w	r9, #0
87800b32:	4602      	mov	r2, r0
87800b34:	fb08 f309 	mul.w	r3, r8, r9
87800b38:	fb04 330b 	mla	r3, r4, fp, r3
87800b3c:	fba8 0104 	umull	r0, r1, r8, r4
87800b40:	4419      	add	r1, r3
87800b42:	2300      	movs	r3, #0
87800b44:	f001 ffe4 	bl	87802b10 <__aeabi_uldivmod>
87800b48:	f5b0 3fe1 	cmp.w	r0, #115200	@ 0x1c200
87800b4c:	f171 0200 	sbcs.w	r2, r1, #0
87800b50:	d32f      	bcc.n	87800bb2 <uart1_init+0x1a6>
87800b52:	f5b0 30e1 	subs.w	r0, r0, #115200	@ 0x1c200
87800b56:	f161 0300 	sbc.w	r3, r1, #0
87800b5a:	f5b0 6f58 	cmp.w	r0, #3456	@ 0xd80
87800b5e:	f173 0300 	sbcs.w	r3, r3, #0
87800b62:	d21a      	bcs.n	87800b9a <uart1_init+0x18e>
87800b64:	2400      	movs	r4, #0
87800b66:	f2c0 2402 	movt	r4, #514	@ 0x202
87800b6a:	9901      	ldr	r1, [sp, #4]
87800b6c:	3e01      	subs	r6, #1
87800b6e:	4638      	mov	r0, r7
87800b70:	f8d4 3090 	ldr.w	r3, [r4, #144]	@ 0x90
87800b74:	b2b6      	uxth	r6, r6
87800b76:	f423 7360 	bic.w	r3, r3, #896	@ 0x380
87800b7a:	f8c4 3090 	str.w	r3, [r4, #144]	@ 0x90
87800b7e:	f8d4 3090 	ldr.w	r3, [r4, #144]	@ 0x90
87800b82:	ea43 13ca 	orr.w	r3, r3, sl, lsl #7
87800b86:	f8c4 3090 	str.w	r3, [r4, #144]	@ 0x90
87800b8a:	f8c4 60a4 	str.w	r6, [r4, #164]	@ 0xa4
87800b8e:	f001 fcdb 	bl	87802548 <__udivsi3>
87800b92:	1e43      	subs	r3, r0, #1
87800b94:	b29b      	uxth	r3, r3
87800b96:	f8c4 30a8 	str.w	r3, [r4, #168]	@ 0xa8
87800b9a:	2300      	movs	r3, #0
87800b9c:	f2c0 2302 	movt	r3, #514	@ 0x202
87800ba0:	f8d3 2080 	ldr.w	r2, [r3, #128]	@ 0x80
87800ba4:	f042 0201 	orr.w	r2, r2, #1
87800ba8:	f8c3 2080 	str.w	r2, [r3, #128]	@ 0x80
87800bac:	b003      	add	sp, #12
87800bae:	e8bd 8ff0 	ldmia.w	sp!, {r4, r5, r6, r7, r8, r9, sl, fp, pc}
87800bb2:	f5d0 30e1 	rsbs	r0, r0, #115200	@ 0x1c200
87800bb6:	eb61 0341 	sbc.w	r3, r1, r1, lsl #1
87800bba:	e7ce      	b.n	87800b5a <uart1_init+0x14e>
87800bbc:	f646 52b9 	movw	r2, #28089	@ 0x6db9
87800bc0:	f2c2 4293 	movt	r2, #9363	@ 0x2493
87800bc4:	f100 3aff 	add.w	sl, r0, #4294967295	@ 0xffffffff
87800bc8:	f248 0901 	movw	r9, #32769	@ 0x8001
87800bcc:	f2c8 0900 	movt	r9, #32768	@ 0x8000
87800bd0:	fba2 1203 	umull	r1, r2, r2, r3
87800bd4:	1a9b      	subs	r3, r3, r2
87800bd6:	eb02 0353 	add.w	r3, r2, r3, lsr #1
87800bda:	fba9 2a0a 	umull	r2, sl, r9, sl
87800bde:	0c9b      	lsrs	r3, r3, #18
87800be0:	ea4f 3ada 	mov.w	sl, sl, lsr #15
87800be4:	3301      	adds	r3, #1
87800be6:	f10a 0a01 	add.w	sl, sl, #1
87800bea:	459a      	cmp	sl, r3
87800bec:	bf38      	it	cc
87800bee:	469a      	movcc	sl, r3
87800bf0:	4651      	mov	r1, sl
87800bf2:	f001 fca9 	bl	87802548 <__udivsi3>
87800bf6:	4557      	cmp	r7, sl
87800bf8:	4680      	mov	r8, r0
87800bfa:	d20c      	bcs.n	87800c16 <uart1_init+0x20a>
87800bfc:	4556      	cmp	r6, sl
87800bfe:	d221      	bcs.n	87800c44 <uart1_init+0x238>
87800c00:	f04f 0910 	mov.w	r9, #16
87800c04:	462f      	mov	r7, r5
87800c06:	462e      	mov	r6, r5
87800c08:	9501      	str	r5, [sp, #4]
87800c0a:	f04f 0a05 	mov.w	sl, #5
87800c0e:	464d      	mov	r5, r9
87800c10:	f04f 0801 	mov.w	r8, #1
87800c14:	e77f      	b.n	87800b16 <uart1_init+0x10a>
87800c16:	4638      	mov	r0, r7
87800c18:	4651      	mov	r1, sl
87800c1a:	f001 fc95 	bl	87802548 <__udivsi3>
87800c1e:	1e44      	subs	r4, r0, #1
87800c20:	4556      	cmp	r6, sl
87800c22:	4607      	mov	r7, r0
87800c24:	bf2c      	ite	cs
87800c26:	4646      	movcs	r6, r8
87800c28:	462e      	movcc	r6, r5
87800c2a:	fba9 9404 	umull	r9, r4, r9, r4
87800c2e:	ea4f 1900 	mov.w	r9, r0, lsl #4
87800c32:	464a      	mov	r2, r9
87800c34:	bf38      	it	cc
87800c36:	f04f 0801 	movcc.w	r8, #1
87800c3a:	0be4      	lsrs	r4, r4, #15
87800c3c:	1c63      	adds	r3, r4, #1
87800c3e:	3c01      	subs	r4, #1
87800c40:	9301      	str	r3, [sp, #4]
87800c42:	e74d      	b.n	87800ae0 <uart1_init+0xd4>
87800c44:	4606      	mov	r6, r0
87800c46:	462f      	mov	r7, r5
87800c48:	f04f 0910 	mov.w	r9, #16
87800c4c:	f04f 0a05 	mov.w	sl, #5
87800c50:	9501      	str	r5, [sp, #4]
87800c52:	e752      	b.n	87800afa <uart1_init+0xee>
87800c54:	f44f 4434 	mov.w	r4, #46080	@ 0xb400
87800c58:	f2c0 44c4 	movt	r4, #1220	@ 0x4c4
87800c5c:	e76a      	b.n	87800b34 <uart1_init+0x128>
87800c5e:	bf00      	nop
87800c60:	00002204 	andeq	r2, r0, r4, lsl #4

87800c64 <uart_enable>:
87800c64:	b128      	cbz	r0, 87800c72 <uart_enable+0xe>
87800c66:	f8d0 3080 	ldr.w	r3, [r0, #128]	@ 0x80
87800c6a:	f043 0301 	orr.w	r3, r3, #1
87800c6e:	f8c0 3080 	str.w	r3, [r0, #128]	@ 0x80
87800c72:	4770      	bx	lr

87800c74 <uart_disable>:
87800c74:	b128      	cbz	r0, 87800c82 <uart_disable+0xe>
87800c76:	f8d0 3080 	ldr.w	r3, [r0, #128]	@ 0x80
87800c7a:	f023 0301 	bic.w	r3, r3, #1
87800c7e:	f8c0 3080 	str.w	r3, [r0, #128]	@ 0x80
87800c82:	4770      	bx	lr

87800c84 <uart_reset>:
87800c84:	b148      	cbz	r0, 87800c9a <uart_reset+0x16>
87800c86:	f8d0 3084 	ldr.w	r3, [r0, #132]	@ 0x84
87800c8a:	f023 0301 	bic.w	r3, r3, #1
87800c8e:	f8c0 3084 	str.w	r3, [r0, #132]	@ 0x84
87800c92:	f8d0 3084 	ldr.w	r3, [r0, #132]	@ 0x84
87800c96:	07db      	lsls	r3, r3, #31
87800c98:	d5fb      	bpl.n	87800c92 <uart_reset+0xe>
87800c9a:	4770      	bx	lr

87800c9c <putc>:
87800c9c:	2200      	movs	r2, #0
87800c9e:	f2c0 2202 	movt	r2, #514	@ 0x202
87800ca2:	f8d2 3098 	ldr.w	r3, [r2, #152]	@ 0x98
87800ca6:	071b      	lsls	r3, r3, #28
87800ca8:	d5fb      	bpl.n	87800ca2 <putc+0x6>
87800caa:	6410      	str	r0, [r2, #64]	@ 0x40
87800cac:	4770      	bx	lr
87800cae:	bf00      	nop

87800cb0 <getc>:
87800cb0:	2200      	movs	r2, #0
87800cb2:	f2c0 2202 	movt	r2, #514	@ 0x202
87800cb6:	f8d2 3098 	ldr.w	r3, [r2, #152]	@ 0x98
87800cba:	07db      	lsls	r3, r3, #31
87800cbc:	d5fb      	bpl.n	87800cb6 <getc+0x6>
87800cbe:	6810      	ldr	r0, [r2, #0]
87800cc0:	b2c0      	uxtb	r0, r0
87800cc2:	4770      	bx	lr

87800cc4 <puts>:
87800cc4:	7801      	ldrb	r1, [r0, #0]
87800cc6:	b159      	cbz	r1, 87800ce0 <puts+0x1c>
87800cc8:	2200      	movs	r2, #0
87800cca:	f2c0 2202 	movt	r2, #514	@ 0x202
87800cce:	f8d2 3098 	ldr.w	r3, [r2, #152]	@ 0x98
87800cd2:	071b      	lsls	r3, r3, #28
87800cd4:	d5fb      	bpl.n	87800cce <puts+0xa>
87800cd6:	6411      	str	r1, [r2, #64]	@ 0x40
87800cd8:	f810 1f01 	ldrb.w	r1, [r0, #1]!
87800cdc:	2900      	cmp	r1, #0
87800cde:	d1f6      	bne.n	87800cce <puts+0xa>
87800ce0:	4770      	bx	lr
87800ce2:	bf00      	nop

87800ce4 <raise>:
87800ce4:	2000      	movs	r0, #0
87800ce6:	4770      	bx	lr

87800ce8 <__div64_32>:
87800ce8:	e92d 47f0 	stmdb	sp!, {r4, r5, r6, r7, r8, r9, sl, lr}
87800cec:	f04f 0a00 	mov.w	sl, #0
87800cf0:	6847      	ldr	r7, [r0, #4]
87800cf2:	6806      	ldr	r6, [r0, #0]
87800cf4:	4680      	mov	r8, r0
87800cf6:	42b9      	cmp	r1, r7
87800cf8:	4689      	mov	r9, r1
87800cfa:	460c      	mov	r4, r1
87800cfc:	4655      	mov	r5, sl
87800cfe:	bf84      	itt	hi
87800d00:	4650      	movhi	r0, sl
87800d02:	46d4      	movhi	ip, sl
87800d04:	d806      	bhi.n	87800d14 <__div64_32+0x2c>
87800d06:	4638      	mov	r0, r7
87800d08:	f001 fc1e 	bl	87802548 <__udivsi3>
87800d0c:	fb00 7719 	mls	r7, r0, r9, r7
87800d10:	4684      	mov	ip, r0
87800d12:	4650      	mov	r0, sl
87800d14:	45b1      	cmp	r9, r6
87800d16:	f04f 0301 	mov.w	r3, #1
87800d1a:	eb7a 0a07 	sbcs.w	sl, sl, r7
87800d1e:	f04f 0e00 	mov.w	lr, #0
87800d22:	bf34      	ite	cc
87800d24:	2101      	movcc	r1, #1
87800d26:	2100      	movcs	r1, #0
87800d28:	f1b9 0f00 	cmp.w	r9, #0
87800d2c:	bf0c      	ite	eq
87800d2e:	2100      	moveq	r1, #0
87800d30:	f001 0101 	andne.w	r1, r1, #1
87800d34:	b391      	cbz	r1, 87800d9c <__div64_32+0xb4>
87800d36:	1924      	adds	r4, r4, r4
87800d38:	416d      	adcs	r5, r5
87800d3a:	18db      	adds	r3, r3, r3
87800d3c:	eb4e 010e 	adc.w	r1, lr, lr
87800d40:	2c01      	cmp	r4, #1
87800d42:	f175 0200 	sbcs.w	r2, r5, #0
87800d46:	bfac      	ite	ge
87800d48:	2201      	movge	r2, #1
87800d4a:	2200      	movlt	r2, #0
87800d4c:	42b4      	cmp	r4, r6
87800d4e:	f002 0201 	and.w	r2, r2, #1
87800d52:	eb75 0e07 	sbcs.w	lr, r5, r7
87800d56:	468e      	mov	lr, r1
87800d58:	bf28      	it	cs
87800d5a:	2200      	movcs	r2, #0
87800d5c:	2a00      	cmp	r2, #0
87800d5e:	d1ea      	bne.n	87800d36 <__div64_32+0x4e>
87800d60:	42a6      	cmp	r6, r4
87800d62:	ea4f 0153 	mov.w	r1, r3, lsr #1
87800d66:	ea4f 0254 	mov.w	r2, r4, lsr #1
87800d6a:	eb77 0905 	sbcs.w	r9, r7, r5
87800d6e:	d306      	bcc.n	87800d7e <__div64_32+0x96>
87800d70:	1b36      	subs	r6, r6, r4
87800d72:	eb67 0705 	sbc.w	r7, r7, r5
87800d76:	181b      	adds	r3, r3, r0
87800d78:	eb4e 0c0c 	adc.w	ip, lr, ip
87800d7c:	4618      	mov	r0, r3
87800d7e:	ea41 73ce 	orr.w	r3, r1, lr, lsl #31
87800d82:	ea4f 0e5e 	mov.w	lr, lr, lsr #1
87800d86:	ea42 74c5 	orr.w	r4, r2, r5, lsl #31
87800d8a:	086d      	lsrs	r5, r5, #1
87800d8c:	ea53 020e 	orrs.w	r2, r3, lr
87800d90:	d1e6      	bne.n	87800d60 <__div64_32+0x78>
87800d92:	e9c8 0c00 	strd	r0, ip, [r8]
87800d96:	4630      	mov	r0, r6
87800d98:	e8bd 87f0 	ldmia.w	sp!, {r4, r5, r6, r7, r8, r9, sl, pc}
87800d9c:	468e      	mov	lr, r1
87800d9e:	2301      	movs	r3, #1
87800da0:	e7de      	b.n	87800d60 <__div64_32+0x78>
87800da2:	bf00      	nop

87800da4 <__muldi3>:
87800da4:	4684      	mov	ip, r0
87800da6:	b570      	push	{r4, r5, r6, lr}
87800da8:	ea4f 4410 	mov.w	r4, r0, lsr #16
87800dac:	ea4f 4e12 	mov.w	lr, r2, lsr #16
87800db0:	ea20 4504 	bic.w	r5, r0, r4, lsl #16
87800db4:	ea22 460e 	bic.w	r6, r2, lr, lsl #16
87800db8:	fb05 f006 	mul.w	r0, r5, r6
87800dbc:	fb04 f606 	mul.w	r6, r4, r6
87800dc0:	fb0e f505 	mul.w	r5, lr, r5
87800dc4:	fb04 fe0e 	mul.w	lr, r4, lr
87800dc8:	1975      	adds	r5, r6, r5
87800dca:	bf28      	it	cs
87800dcc:	f50e 3e80 	addcs.w	lr, lr, #65536	@ 0x10000
87800dd0:	eb10 4005 	adds.w	r0, r0, r5, lsl #16
87800dd4:	eb4e 4e15 	adc.w	lr, lr, r5, lsr #16
87800dd8:	fb03 e30c 	mla	r3, r3, ip, lr
87800ddc:	fb02 3101 	mla	r1, r2, r1, r3
87800de0:	bd70      	pop	{r4, r5, r6, pc}
87800de2:	bf00      	nop

87800de4 <printf>:
87800de4:	b40f      	push	{r0, r1, r2, r3}
87800de6:	b5f8      	push	{r3, r4, r5, r6, r7, lr}
87800de8:	2400      	movs	r4, #0
87800dea:	4e0d      	ldr	r6, [pc, #52]	@ (87800e20 <printf+0x3c>)
87800dec:	aa06      	add	r2, sp, #24
87800dee:	447e      	add	r6, pc
87800df0:	4630      	mov	r0, r6
87800df2:	1e75      	subs	r5, r6, #1
87800df4:	f852 1b04 	ldr.w	r1, [r2], #4
87800df8:	f001 f924 	bl	87802044 <vsprintf>
87800dfc:	4607      	mov	r7, r0
87800dfe:	e004      	b.n	87800e0a <printf+0x26>
87800e00:	3401      	adds	r4, #1
87800e02:	f815 0f01 	ldrb.w	r0, [r5, #1]!
87800e06:	f7ff ff49 	bl	87800c9c <putc>
87800e0a:	4630      	mov	r0, r6
87800e0c:	f000 f906 	bl	8780101c <strlen>
87800e10:	42a0      	cmp	r0, r4
87800e12:	d8f5      	bhi.n	87800e00 <printf+0x1c>
87800e14:	4638      	mov	r0, r7
87800e16:	e8bd 40f8 	ldmia.w	sp!, {r3, r4, r5, r6, r7, lr}
87800e1a:	b004      	add	sp, #16
87800e1c:	4770      	bx	lr
87800e1e:	bf00      	nop
87800e20:	000025d2 	ldrdeq	r2, [r0], -r2	@ <UNPREDICTABLE>

87800e24 <scanf>:
87800e24:	b40f      	push	{r0, r1, r2, r3}
87800e26:	b570      	push	{r4, r5, r6, lr}
87800e28:	2600      	movs	r6, #0
87800e2a:	4d11      	ldr	r5, [pc, #68]	@ (87800e70 <scanf+0x4c>)
87800e2c:	447d      	add	r5, pc
87800e2e:	f205 35ff 	addw	r5, r5, #1023	@ 0x3ff
87800e32:	e002      	b.n	87800e3a <scanf+0x16>
87800e34:	3601      	adds	r6, #1
87800e36:	f805 4f01 	strb.w	r4, [r5, #1]!
87800e3a:	f7ff ff39 	bl	87800cb0 <getc>
87800e3e:	4604      	mov	r4, r0
87800e40:	f7ff ff2c 	bl	87800c9c <putc>
87800e44:	2c0a      	cmp	r4, #10
87800e46:	bf18      	it	ne
87800e48:	2c0d      	cmpne	r4, #13
87800e4a:	d1f3      	bne.n	87800e34 <scanf+0x10>
87800e4c:	4809      	ldr	r0, [pc, #36]	@ (87800e74 <scanf+0x50>)
87800e4e:	aa04      	add	r2, sp, #16
87800e50:	2300      	movs	r3, #0
87800e52:	4478      	add	r0, pc
87800e54:	4406      	add	r6, r0
87800e56:	f852 1b04 	ldr.w	r1, [r2], #4
87800e5a:	f500 6080 	add.w	r0, r0, #1024	@ 0x400
87800e5e:	f886 3400 	strb.w	r3, [r6, #1024]	@ 0x400
87800e62:	f001 f903 	bl	8780206c <vsscanf>
87800e66:	e8bd 4070 	ldmia.w	sp!, {r4, r5, r6, lr}
87800e6a:	b004      	add	sp, #16
87800e6c:	4770      	bx	lr
87800e6e:	bf00      	nop
87800e70:	00002594 	muleq	r0, r4, r5
87800e74:	0000256e 	andeq	r2, r0, lr, ror #10

87800e78 <strnicmp>:
87800e78:	f8df c060 	ldr.w	ip, [pc, #96]	@ 87800edc <strnicmp+0x64>
87800e7c:	44fc      	add	ip, pc
87800e7e:	b312      	cbz	r2, 87800ec6 <strnicmp+0x4e>
87800e80:	b5f0      	push	{r4, r5, r6, r7, lr}
87800e82:	3801      	subs	r0, #1
87800e84:	188f      	adds	r7, r1, r2
87800e86:	e005      	b.n	87800e94 <strnicmp+0x1c>
87800e88:	b2f3      	uxtb	r3, r6
87800e8a:	b9cc      	cbnz	r4, 87800ec0 <strnicmp+0x48>
87800e8c:	429a      	cmp	r2, r3
87800e8e:	d122      	bne.n	87800ed6 <strnicmp+0x5e>
87800e90:	428f      	cmp	r7, r1
87800e92:	d01e      	beq.n	87800ed2 <strnicmp+0x5a>
87800e94:	f810 3f01 	ldrb.w	r3, [r0, #1]!
87800e98:	4c11      	ldr	r4, [pc, #68]	@ (87800ee0 <strnicmp+0x68>)
87800e9a:	f811 2b01 	ldrb.w	r2, [r1], #1
87800e9e:	b1a3      	cbz	r3, 87800eca <strnicmp+0x52>
87800ea0:	b1aa      	cbz	r2, 87800ece <strnicmp+0x56>
87800ea2:	4293      	cmp	r3, r2
87800ea4:	d0f4      	beq.n	87800e90 <strnicmp+0x18>
87800ea6:	f85c 5004 	ldr.w	r5, [ip, r4]
87800eaa:	f102 0e20 	add.w	lr, r2, #32
87800eae:	f103 0620 	add.w	r6, r3, #32
87800eb2:	5cac      	ldrb	r4, [r5, r2]
87800eb4:	5ced      	ldrb	r5, [r5, r3]
87800eb6:	f004 0401 	and.w	r4, r4, #1
87800eba:	07ed      	lsls	r5, r5, #31
87800ebc:	d4e4      	bmi.n	87800e88 <strnicmp+0x10>
87800ebe:	b154      	cbz	r4, 87800ed6 <strnicmp+0x5e>
87800ec0:	fa5f f28e 	uxtb.w	r2, lr
87800ec4:	e7e2      	b.n	87800e8c <strnicmp+0x14>
87800ec6:	4610      	mov	r0, r2
87800ec8:	4770      	bx	lr
87800eca:	4250      	negs	r0, r2
87800ecc:	bdf0      	pop	{r4, r5, r6, r7, pc}
87800ece:	4618      	mov	r0, r3
87800ed0:	bdf0      	pop	{r4, r5, r6, r7, pc}
87800ed2:	2000      	movs	r0, #0
87800ed4:	bdf0      	pop	{r4, r5, r6, r7, pc}
87800ed6:	1a98      	subs	r0, r3, r2
87800ed8:	bdf0      	pop	{r4, r5, r6, r7, pc}
87800eda:	bf00      	nop
87800edc:	fffff180 			@ <UNDEFINED> instruction: 0xfffff180
87800ee0:	00000194 	muleq	r0, r4, r1

87800ee4 <strcpy>:
87800ee4:	1e42      	subs	r2, r0, #1
87800ee6:	f811 3b01 	ldrb.w	r3, [r1], #1
87800eea:	f802 3f01 	strb.w	r3, [r2, #1]!
87800eee:	2b00      	cmp	r3, #0
87800ef0:	d1f9      	bne.n	87800ee6 <strcpy+0x2>
87800ef2:	4770      	bx	lr

87800ef4 <strncpy>:
87800ef4:	f100 3cff 	add.w	ip, r0, #4294967295	@ 0xffffffff
87800ef8:	440a      	add	r2, r1
87800efa:	e004      	b.n	87800f06 <strncpy+0x12>
87800efc:	f811 3b01 	ldrb.w	r3, [r1], #1
87800f00:	f80c 3f01 	strb.w	r3, [ip, #1]!
87800f04:	b10b      	cbz	r3, 87800f0a <strncpy+0x16>
87800f06:	4291      	cmp	r1, r2
87800f08:	d1f8      	bne.n	87800efc <strncpy+0x8>
87800f0a:	4770      	bx	lr

87800f0c <strcat>:
87800f0c:	7803      	ldrb	r3, [r0, #0]
87800f0e:	b163      	cbz	r3, 87800f2a <strcat+0x1e>
87800f10:	4603      	mov	r3, r0
87800f12:	f813 2f01 	ldrb.w	r2, [r3, #1]!
87800f16:	2a00      	cmp	r2, #0
87800f18:	d1fb      	bne.n	87800f12 <strcat+0x6>
87800f1a:	3b01      	subs	r3, #1
87800f1c:	f811 2b01 	ldrb.w	r2, [r1], #1
87800f20:	f803 2f01 	strb.w	r2, [r3, #1]!
87800f24:	2a00      	cmp	r2, #0
87800f26:	d1f9      	bne.n	87800f1c <strcat+0x10>
87800f28:	4770      	bx	lr
87800f2a:	4603      	mov	r3, r0
87800f2c:	e7f5      	b.n	87800f1a <strcat+0xe>
87800f2e:	bf00      	nop

87800f30 <strncat>:
87800f30:	b902      	cbnz	r2, 87800f34 <strncat+0x4>
87800f32:	4770      	bx	lr
87800f34:	7803      	ldrb	r3, [r0, #0]
87800f36:	b1cb      	cbz	r3, 87800f6c <strncat+0x3c>
87800f38:	4603      	mov	r3, r0
87800f3a:	b410      	push	{r4}
87800f3c:	f813 4f01 	ldrb.w	r4, [r3, #1]!
87800f40:	2c00      	cmp	r4, #0
87800f42:	d1fb      	bne.n	87800f3c <strncat+0xc>
87800f44:	3901      	subs	r1, #1
87800f46:	eb03 0c02 	add.w	ip, r3, r2
87800f4a:	e001      	b.n	87800f50 <strncat+0x20>
87800f4c:	4563      	cmp	r3, ip
87800f4e:	d008      	beq.n	87800f62 <strncat+0x32>
87800f50:	f811 2f01 	ldrb.w	r2, [r1, #1]!
87800f54:	f803 2b01 	strb.w	r2, [r3], #1
87800f58:	2a00      	cmp	r2, #0
87800f5a:	d1f7      	bne.n	87800f4c <strncat+0x1c>
87800f5c:	f85d 4b04 	ldr.w	r4, [sp], #4
87800f60:	4770      	bx	lr
87800f62:	2200      	movs	r2, #0
87800f64:	701a      	strb	r2, [r3, #0]
87800f66:	f85d 4b04 	ldr.w	r4, [sp], #4
87800f6a:	4770      	bx	lr
87800f6c:	4603      	mov	r3, r0
87800f6e:	3901      	subs	r1, #1
87800f70:	eb00 0c02 	add.w	ip, r0, r2
87800f74:	e001      	b.n	87800f7a <strncat+0x4a>
87800f76:	4563      	cmp	r3, ip
87800f78:	d006      	beq.n	87800f88 <strncat+0x58>
87800f7a:	f811 2f01 	ldrb.w	r2, [r1, #1]!
87800f7e:	f803 2b01 	strb.w	r2, [r3], #1
87800f82:	2a00      	cmp	r2, #0
87800f84:	d1f7      	bne.n	87800f76 <strncat+0x46>
87800f86:	4770      	bx	lr
87800f88:	2200      	movs	r2, #0
87800f8a:	701a      	strb	r2, [r3, #0]
87800f8c:	4770      	bx	lr
87800f8e:	bf00      	nop

87800f90 <strcmp>:
87800f90:	1e42      	subs	r2, r0, #1
87800f92:	e000      	b.n	87800f96 <strcmp+0x6>
87800f94:	b143      	cbz	r3, 87800fa8 <strcmp+0x18>
87800f96:	f812 3f01 	ldrb.w	r3, [r2, #1]!
87800f9a:	f811 0b01 	ldrb.w	r0, [r1], #1
87800f9e:	1a18      	subs	r0, r3, r0
87800fa0:	b240      	sxtb	r0, r0
87800fa2:	2800      	cmp	r0, #0
87800fa4:	d0f6      	beq.n	87800f94 <strcmp+0x4>
87800fa6:	4770      	bx	lr
87800fa8:	4618      	mov	r0, r3
87800faa:	4770      	bx	lr

87800fac <strncmp>:
87800fac:	b192      	cbz	r2, 87800fd4 <strncmp+0x28>
87800fae:	f100 3cff 	add.w	ip, r0, #4294967295	@ 0xffffffff
87800fb2:	440a      	add	r2, r1
87800fb4:	e002      	b.n	87800fbc <strncmp+0x10>
87800fb6:	b153      	cbz	r3, 87800fce <strncmp+0x22>
87800fb8:	428a      	cmp	r2, r1
87800fba:	d00a      	beq.n	87800fd2 <strncmp+0x26>
87800fbc:	f81c 3f01 	ldrb.w	r3, [ip, #1]!
87800fc0:	f811 0b01 	ldrb.w	r0, [r1], #1
87800fc4:	1a18      	subs	r0, r3, r0
87800fc6:	b240      	sxtb	r0, r0
87800fc8:	2800      	cmp	r0, #0
87800fca:	d0f4      	beq.n	87800fb6 <strncmp+0xa>
87800fcc:	4770      	bx	lr
87800fce:	4618      	mov	r0, r3
87800fd0:	4770      	bx	lr
87800fd2:	4770      	bx	lr
87800fd4:	4610      	mov	r0, r2
87800fd6:	4770      	bx	lr

87800fd8 <strchr>:
87800fd8:	7803      	ldrb	r3, [r0, #0]
87800fda:	b2c9      	uxtb	r1, r1
87800fdc:	428b      	cmp	r3, r1
87800fde:	d006      	beq.n	87800fee <strchr+0x16>
87800fe0:	b123      	cbz	r3, 87800fec <strchr+0x14>
87800fe2:	f810 3f01 	ldrb.w	r3, [r0, #1]!
87800fe6:	428b      	cmp	r3, r1
87800fe8:	d1fa      	bne.n	87800fe0 <strchr+0x8>
87800fea:	4770      	bx	lr
87800fec:	4618      	mov	r0, r3
87800fee:	4770      	bx	lr

87800ff0 <strrchr>:
87800ff0:	7803      	ldrb	r3, [r0, #0]
87800ff2:	4684      	mov	ip, r0
87800ff4:	b183      	cbz	r3, 87801018 <strrchr+0x28>
87800ff6:	4603      	mov	r3, r0
87800ff8:	f813 2f01 	ldrb.w	r2, [r3, #1]!
87800ffc:	2a00      	cmp	r2, #0
87800ffe:	d1fb      	bne.n	87800ff8 <strrchr+0x8>
87801000:	b2c9      	uxtb	r1, r1
87801002:	e001      	b.n	87801008 <strrchr+0x18>
87801004:	459c      	cmp	ip, r3
87801006:	d805      	bhi.n	87801014 <strrchr+0x24>
87801008:	4618      	mov	r0, r3
8780100a:	f813 2901 	ldrb.w	r2, [r3], #-1
8780100e:	428a      	cmp	r2, r1
87801010:	d1f8      	bne.n	87801004 <strrchr+0x14>
87801012:	4770      	bx	lr
87801014:	2000      	movs	r0, #0
87801016:	4770      	bx	lr
87801018:	4603      	mov	r3, r0
8780101a:	e7f1      	b.n	87801000 <strrchr+0x10>

8780101c <strlen>:
8780101c:	7803      	ldrb	r3, [r0, #0]
8780101e:	b133      	cbz	r3, 8780102e <strlen+0x12>
87801020:	4603      	mov	r3, r0
87801022:	f813 2f01 	ldrb.w	r2, [r3, #1]!
87801026:	2a00      	cmp	r2, #0
87801028:	d1fb      	bne.n	87801022 <strlen+0x6>
8780102a:	1a18      	subs	r0, r3, r0
8780102c:	4770      	bx	lr
8780102e:	4618      	mov	r0, r3
87801030:	4770      	bx	lr
87801032:	bf00      	nop

87801034 <strnlen>:
87801034:	4603      	mov	r3, r0
87801036:	eb00 0c01 	add.w	ip, r0, r1
8780103a:	b911      	cbnz	r1, 87801042 <strnlen+0xe>
8780103c:	e00a      	b.n	87801054 <strnlen+0x20>
8780103e:	4563      	cmp	r3, ip
87801040:	d006      	beq.n	87801050 <strnlen+0x1c>
87801042:	461a      	mov	r2, r3
87801044:	3301      	adds	r3, #1
87801046:	7811      	ldrb	r1, [r2, #0]
87801048:	2900      	cmp	r1, #0
8780104a:	d1f8      	bne.n	8780103e <strnlen+0xa>
8780104c:	1a10      	subs	r0, r2, r0
8780104e:	4770      	bx	lr
87801050:	1a18      	subs	r0, r3, r0
87801052:	4770      	bx	lr
87801054:	4608      	mov	r0, r1
87801056:	4770      	bx	lr

87801058 <strspn>:
87801058:	b510      	push	{r4, lr}
8780105a:	468e      	mov	lr, r1
8780105c:	7801      	ldrb	r1, [r0, #0]
8780105e:	b1a1      	cbz	r1, 8780108a <strspn+0x32>
87801060:	f89e 4000 	ldrb.w	r4, [lr]
87801064:	b17c      	cbz	r4, 87801086 <strspn+0x2e>
87801066:	4684      	mov	ip, r0
87801068:	2000      	movs	r0, #0
8780106a:	4672      	mov	r2, lr
8780106c:	4623      	mov	r3, r4
8780106e:	e002      	b.n	87801076 <strspn+0x1e>
87801070:	f812 3f01 	ldrb.w	r3, [r2, #1]!
87801074:	b133      	cbz	r3, 87801084 <strspn+0x2c>
87801076:	4299      	cmp	r1, r3
87801078:	d1fa      	bne.n	87801070 <strspn+0x18>
8780107a:	f81c 1f01 	ldrb.w	r1, [ip, #1]!
8780107e:	3001      	adds	r0, #1
87801080:	2900      	cmp	r1, #0
87801082:	d1f2      	bne.n	8780106a <strspn+0x12>
87801084:	bd10      	pop	{r4, pc}
87801086:	4620      	mov	r0, r4
87801088:	bd10      	pop	{r4, pc}
8780108a:	4608      	mov	r0, r1
8780108c:	bd10      	pop	{r4, pc}
8780108e:	bf00      	nop

87801090 <strpbrk>:
87801090:	b430      	push	{r4, r5}
87801092:	7804      	ldrb	r4, [r0, #0]
87801094:	b17c      	cbz	r4, 878010b6 <strpbrk+0x26>
87801096:	780d      	ldrb	r5, [r1, #0]
87801098:	b185      	cbz	r5, 878010bc <strpbrk+0x2c>
8780109a:	460a      	mov	r2, r1
8780109c:	462b      	mov	r3, r5
8780109e:	e002      	b.n	878010a6 <strpbrk+0x16>
878010a0:	f812 3f01 	ldrb.w	r3, [r2, #1]!
878010a4:	b11b      	cbz	r3, 878010ae <strpbrk+0x1e>
878010a6:	42a3      	cmp	r3, r4
878010a8:	d1fa      	bne.n	878010a0 <strpbrk+0x10>
878010aa:	bc30      	pop	{r4, r5}
878010ac:	4770      	bx	lr
878010ae:	f810 4f01 	ldrb.w	r4, [r0, #1]!
878010b2:	2c00      	cmp	r4, #0
878010b4:	d1f1      	bne.n	8780109a <strpbrk+0xa>
878010b6:	4620      	mov	r0, r4
878010b8:	bc30      	pop	{r4, r5}
878010ba:	4770      	bx	lr
878010bc:	f810 4f01 	ldrb.w	r4, [r0, #1]!
878010c0:	2c00      	cmp	r4, #0
878010c2:	d1fb      	bne.n	878010bc <strpbrk+0x2c>
878010c4:	e7f7      	b.n	878010b6 <strpbrk+0x26>
878010c6:	bf00      	nop

878010c8 <strtok>:
878010c8:	b570      	push	{r4, r5, r6, lr}
878010ca:	460c      	mov	r4, r1
878010cc:	4606      	mov	r6, r0
878010ce:	b3a0      	cbz	r0, 8780113a <strtok+0x72>
878010d0:	7831      	ldrb	r1, [r6, #0]
878010d2:	2900      	cmp	r1, #0
878010d4:	d03d      	beq.n	87801152 <strtok+0x8a>
878010d6:	7825      	ldrb	r5, [r4, #0]
878010d8:	46ac      	mov	ip, r5
878010da:	b185      	cbz	r5, 878010fe <strtok+0x36>
878010dc:	46b6      	mov	lr, r6
878010de:	f04f 0c00 	mov.w	ip, #0
878010e2:	4622      	mov	r2, r4
878010e4:	462b      	mov	r3, r5
878010e6:	e002      	b.n	878010ee <strtok+0x26>
878010e8:	f812 3f01 	ldrb.w	r3, [r2, #1]!
878010ec:	b13b      	cbz	r3, 878010fe <strtok+0x36>
878010ee:	4299      	cmp	r1, r3
878010f0:	d1fa      	bne.n	878010e8 <strtok+0x20>
878010f2:	f81e 1f01 	ldrb.w	r1, [lr, #1]!
878010f6:	f10c 0c01 	add.w	ip, ip, #1
878010fa:	2900      	cmp	r1, #0
878010fc:	d1f1      	bne.n	878010e2 <strtok+0x1a>
878010fe:	f816 100c 	ldrb.w	r1, [r6, ip]
87801102:	eb06 000c 	add.w	r0, r6, ip
87801106:	b321      	cbz	r1, 87801152 <strtok+0x8a>
87801108:	4606      	mov	r6, r0
8780110a:	b1ed      	cbz	r5, 87801148 <strtok+0x80>
8780110c:	4622      	mov	r2, r4
8780110e:	462b      	mov	r3, r5
87801110:	e002      	b.n	87801118 <strtok+0x50>
87801112:	f812 3f01 	ldrb.w	r3, [r2, #1]!
87801116:	b153      	cbz	r3, 8780112e <strtok+0x66>
87801118:	4299      	cmp	r1, r3
8780111a:	d1fa      	bne.n	87801112 <strtok+0x4a>
8780111c:	7833      	ldrb	r3, [r6, #0]
8780111e:	b113      	cbz	r3, 87801126 <strtok+0x5e>
87801120:	2300      	movs	r3, #0
87801122:	f806 3b01 	strb.w	r3, [r6], #1
87801126:	4b0e      	ldr	r3, [pc, #56]	@ (87801160 <strtok+0x98>)
87801128:	447b      	add	r3, pc
8780112a:	601e      	str	r6, [r3, #0]
8780112c:	bd70      	pop	{r4, r5, r6, pc}
8780112e:	f816 1f01 	ldrb.w	r1, [r6, #1]!
87801132:	2900      	cmp	r1, #0
87801134:	d1ea      	bne.n	8780110c <strtok+0x44>
87801136:	460e      	mov	r6, r1
87801138:	e7f5      	b.n	87801126 <strtok+0x5e>
8780113a:	4b0a      	ldr	r3, [pc, #40]	@ (87801164 <strtok+0x9c>)
8780113c:	447b      	add	r3, pc
8780113e:	681e      	ldr	r6, [r3, #0]
87801140:	2e00      	cmp	r6, #0
87801142:	d1c5      	bne.n	878010d0 <strtok+0x8>
87801144:	2000      	movs	r0, #0
87801146:	bd70      	pop	{r4, r5, r6, pc}
87801148:	f816 1f01 	ldrb.w	r1, [r6, #1]!
8780114c:	2900      	cmp	r1, #0
8780114e:	d1fb      	bne.n	87801148 <strtok+0x80>
87801150:	e7f1      	b.n	87801136 <strtok+0x6e>
87801152:	4b05      	ldr	r3, [pc, #20]	@ (87801168 <strtok+0xa0>)
87801154:	2200      	movs	r2, #0
87801156:	2000      	movs	r0, #0
87801158:	447b      	add	r3, pc
8780115a:	601a      	str	r2, [r3, #0]
8780115c:	e7f3      	b.n	87801146 <strtok+0x7e>
8780115e:	bf00      	nop
87801160:	00002a98 	muleq	r0, r8, sl
87801164:	00002a84 	andeq	r2, r0, r4, lsl #21
87801168:	00002a68 	andeq	r2, r0, r8, ror #20

8780116c <strsep>:
8780116c:	b530      	push	{r4, r5, lr}
8780116e:	4686      	mov	lr, r0
87801170:	6800      	ldr	r0, [r0, #0]
87801172:	b190      	cbz	r0, 8780119a <strsep+0x2e>
87801174:	7804      	ldrb	r4, [r0, #0]
87801176:	b174      	cbz	r4, 87801196 <strsep+0x2a>
87801178:	780d      	ldrb	r5, [r1, #0]
8780117a:	4684      	mov	ip, r0
8780117c:	b19d      	cbz	r5, 878011a6 <strsep+0x3a>
8780117e:	460a      	mov	r2, r1
87801180:	462b      	mov	r3, r5
87801182:	e002      	b.n	8780118a <strsep+0x1e>
87801184:	f812 3f01 	ldrb.w	r3, [r2, #1]!
87801188:	b143      	cbz	r3, 8780119c <strsep+0x30>
8780118a:	42a3      	cmp	r3, r4
8780118c:	d1fa      	bne.n	87801184 <strsep+0x18>
8780118e:	4664      	mov	r4, ip
87801190:	2200      	movs	r2, #0
87801192:	f804 2b01 	strb.w	r2, [r4], #1
87801196:	f8ce 4000 	str.w	r4, [lr]
8780119a:	bd30      	pop	{r4, r5, pc}
8780119c:	f81c 4f01 	ldrb.w	r4, [ip, #1]!
878011a0:	2c00      	cmp	r4, #0
878011a2:	d1ec      	bne.n	8780117e <strsep+0x12>
878011a4:	e7f7      	b.n	87801196 <strsep+0x2a>
878011a6:	f81c 4f01 	ldrb.w	r4, [ip, #1]!
878011aa:	2c00      	cmp	r4, #0
878011ac:	d1fb      	bne.n	878011a6 <strsep+0x3a>
878011ae:	e7f2      	b.n	87801196 <strsep+0x2a>

878011b0 <memset>:
878011b0:	b132      	cbz	r2, 878011c0 <memset+0x10>
878011b2:	b2c9      	uxtb	r1, r1
878011b4:	4402      	add	r2, r0
878011b6:	4603      	mov	r3, r0
878011b8:	f803 1b01 	strb.w	r1, [r3], #1
878011bc:	429a      	cmp	r2, r3
878011be:	d1fb      	bne.n	878011b8 <memset+0x8>
878011c0:	4770      	bx	lr
878011c2:	bf00      	nop

878011c4 <bcopy>:
878011c4:	b13a      	cbz	r2, 878011d6 <bcopy+0x12>
878011c6:	3901      	subs	r1, #1
878011c8:	4402      	add	r2, r0
878011ca:	f810 3b01 	ldrb.w	r3, [r0], #1
878011ce:	f801 3f01 	strb.w	r3, [r1, #1]!
878011d2:	4290      	cmp	r0, r2
878011d4:	d1f9      	bne.n	878011ca <bcopy+0x6>
878011d6:	4770      	bx	lr

878011d8 <memcpy>:
878011d8:	b13a      	cbz	r2, 878011ea <memcpy+0x12>
878011da:	1e43      	subs	r3, r0, #1
878011dc:	440a      	add	r2, r1
878011de:	f811 cb01 	ldrb.w	ip, [r1], #1
878011e2:	f803 cf01 	strb.w	ip, [r3, #1]!
878011e6:	4291      	cmp	r1, r2
878011e8:	d1f9      	bne.n	878011de <memcpy+0x6>
878011ea:	4770      	bx	lr

878011ec <memmove>:
878011ec:	4288      	cmp	r0, r1
878011ee:	d809      	bhi.n	87801204 <memmove+0x18>
878011f0:	b19a      	cbz	r2, 8780121a <memmove+0x2e>
878011f2:	1e43      	subs	r3, r0, #1
878011f4:	440a      	add	r2, r1
878011f6:	f811 cb01 	ldrb.w	ip, [r1], #1
878011fa:	f803 cf01 	strb.w	ip, [r3, #1]!
878011fe:	4291      	cmp	r1, r2
87801200:	d1f9      	bne.n	878011f6 <memmove+0xa>
87801202:	4770      	bx	lr
87801204:	eb00 0c02 	add.w	ip, r0, r2
87801208:	188b      	adds	r3, r1, r2
8780120a:	b132      	cbz	r2, 8780121a <memmove+0x2e>
8780120c:	4662      	mov	r2, ip
8780120e:	f813 cd01 	ldrb.w	ip, [r3, #-1]!
87801212:	f802 cd01 	strb.w	ip, [r2, #-1]!
87801216:	4299      	cmp	r1, r3
87801218:	d1f9      	bne.n	8780120e <memmove+0x22>
8780121a:	4770      	bx	lr

8780121c <memcmp>:
8780121c:	b17a      	cbz	r2, 8780123e <memcmp+0x22>
8780121e:	3a01      	subs	r2, #1
87801220:	1e43      	subs	r3, r0, #1
87801222:	3901      	subs	r1, #1
87801224:	eb00 0c02 	add.w	ip, r0, r2
87801228:	e001      	b.n	8780122e <memcmp+0x12>
8780122a:	4563      	cmp	r3, ip
8780122c:	d006      	beq.n	8780123c <memcmp+0x20>
8780122e:	f813 0f01 	ldrb.w	r0, [r3, #1]!
87801232:	f811 2f01 	ldrb.w	r2, [r1, #1]!
87801236:	1a80      	subs	r0, r0, r2
87801238:	d0f7      	beq.n	8780122a <memcmp+0xe>
8780123a:	4770      	bx	lr
8780123c:	4770      	bx	lr
8780123e:	4610      	mov	r0, r2
87801240:	e7fb      	b.n	8780123a <memcmp+0x1e>
87801242:	bf00      	nop

87801244 <memscan>:
87801244:	b14a      	cbz	r2, 8780125a <memscan+0x16>
87801246:	4603      	mov	r3, r0
87801248:	4402      	add	r2, r0
8780124a:	e001      	b.n	87801250 <memscan+0xc>
8780124c:	4293      	cmp	r3, r2
8780124e:	d005      	beq.n	8780125c <memscan+0x18>
87801250:	4618      	mov	r0, r3
87801252:	f813 cb01 	ldrb.w	ip, [r3], #1
87801256:	458c      	cmp	ip, r1
87801258:	d1f8      	bne.n	8780124c <memscan+0x8>
8780125a:	4770      	bx	lr
8780125c:	4618      	mov	r0, r3
8780125e:	4770      	bx	lr

87801260 <strstr>:
87801260:	780b      	ldrb	r3, [r1, #0]
87801262:	b34b      	cbz	r3, 878012b8 <strstr+0x58>
87801264:	460b      	mov	r3, r1
87801266:	b5f0      	push	{r4, r5, r6, r7, lr}
87801268:	f813 2f01 	ldrb.w	r2, [r3, #1]!
8780126c:	2a00      	cmp	r2, #0
8780126e:	d1fb      	bne.n	87801268 <strstr+0x8>
87801270:	1a5e      	subs	r6, r3, r1
87801272:	d020      	beq.n	878012b6 <strstr+0x56>
87801274:	7803      	ldrb	r3, [r0, #0]
87801276:	b12b      	cbz	r3, 87801284 <strstr+0x24>
87801278:	4603      	mov	r3, r0
8780127a:	f813 2f01 	ldrb.w	r2, [r3, #1]!
8780127e:	2a00      	cmp	r2, #0
87801280:	d1fb      	bne.n	8780127a <strstr+0x1a>
87801282:	1a1b      	subs	r3, r3, r0
87801284:	42b3      	cmp	r3, r6
87801286:	db15      	blt.n	878012b4 <strstr+0x54>
87801288:	1984      	adds	r4, r0, r6
8780128a:	1e4f      	subs	r7, r1, #1
8780128c:	18c5      	adds	r5, r0, r3
8780128e:	1e43      	subs	r3, r0, #1
87801290:	463a      	mov	r2, r7
87801292:	e002      	b.n	8780129a <strstr+0x3a>
87801294:	f1be 0f01 	cmp.w	lr, #1
87801298:	d00d      	beq.n	878012b6 <strstr+0x56>
8780129a:	f813 cf01 	ldrb.w	ip, [r3, #1]!
8780129e:	f812 1f01 	ldrb.w	r1, [r2, #1]!
878012a2:	eba4 0e03 	sub.w	lr, r4, r3
878012a6:	458c      	cmp	ip, r1
878012a8:	d0f4      	beq.n	87801294 <strstr+0x34>
878012aa:	3001      	adds	r0, #1
878012ac:	3401      	adds	r4, #1
878012ae:	1a2b      	subs	r3, r5, r0
878012b0:	429e      	cmp	r6, r3
878012b2:	ddec      	ble.n	8780128e <strstr+0x2e>
878012b4:	2000      	movs	r0, #0
878012b6:	bdf0      	pop	{r4, r5, r6, r7, pc}
878012b8:	4770      	bx	lr
878012ba:	bf00      	nop

878012bc <memchr>:
878012bc:	4402      	add	r2, r0
878012be:	b2c9      	uxtb	r1, r1
878012c0:	e004      	b.n	878012cc <memchr+0x10>
878012c2:	f813 cb01 	ldrb.w	ip, [r3], #1
878012c6:	458c      	cmp	ip, r1
878012c8:	d004      	beq.n	878012d4 <memchr+0x18>
878012ca:	4618      	mov	r0, r3
878012cc:	4603      	mov	r3, r0
878012ce:	4290      	cmp	r0, r2
878012d0:	d1f7      	bne.n	878012c2 <memchr+0x6>
878012d2:	2000      	movs	r0, #0
878012d4:	4770      	bx	lr
878012d6:	bf00      	nop

878012d8 <number>:
878012d8:	e92d 4ff0 	stmdb	sp!, {r4, r5, r6, r7, r8, r9, sl, fp, lr}
878012dc:	460d      	mov	r5, r1
878012de:	4604      	mov	r4, r0
878012e0:	b0a5      	sub	sp, #148	@ 0x94
878012e2:	992e      	ldr	r1, [sp, #184]	@ 0xb8
878012e4:	9e31      	ldr	r6, [sp, #196]	@ 0xc4
878012e6:	390a      	subs	r1, #10
878012e8:	bf18      	it	ne
878012ea:	2101      	movne	r1, #1
878012ec:	f006 0b20 	and.w	fp, r6, #32
878012f0:	ea01 1e56 	and.w	lr, r1, r6, lsr #5
878012f4:	f016 0110 	ands.w	r1, r6, #16
878012f8:	bf18      	it	ne
878012fa:	f026 0601 	bicne.w	r6, r6, #1
878012fe:	9101      	str	r1, [sp, #4]
87801300:	bf0c      	ite	eq
87801302:	f006 0111 	andeq.w	r1, r6, #17
87801306:	2110      	movne	r1, #16
87801308:	9102      	str	r1, [sp, #8]
8780130a:	f016 0102 	ands.w	r1, r6, #2
8780130e:	f000 809b 	beq.w	87801448 <number+0x170>
87801312:	2b00      	cmp	r3, #0
87801314:	f2c0 80a8 	blt.w	87801468 <number+0x190>
87801318:	0771      	lsls	r1, r6, #29
8780131a:	f100 80f5 	bmi.w	87801508 <number+0x230>
8780131e:	f016 0108 	ands.w	r1, r6, #8
87801322:	f000 8091 	beq.w	87801448 <number+0x170>
87801326:	992f      	ldr	r1, [sp, #188]	@ 0xbc
87801328:	3901      	subs	r1, #1
8780132a:	912f      	str	r1, [sp, #188]	@ 0xbc
8780132c:	2120      	movs	r1, #32
8780132e:	9103      	str	r1, [sp, #12]
87801330:	f1be 0f00 	cmp.w	lr, #0
87801334:	f040 808d 	bne.w	87801452 <number+0x17a>
87801338:	ea52 0103 	orrs.w	r1, r2, r3
8780133c:	f040 80d7 	bne.w	878014ee <number+0x216>
87801340:	f04f 0c00 	mov.w	ip, #0
87801344:	2101      	movs	r1, #1
87801346:	2330      	movs	r3, #48	@ 0x30
87801348:	f88d 302c 	strb.w	r3, [sp, #44]	@ 0x2c
8780134c:	9b30      	ldr	r3, [sp, #192]	@ 0xc0
8780134e:	9a2f      	ldr	r2, [sp, #188]	@ 0xbc
87801350:	428b      	cmp	r3, r1
87801352:	bfb8      	it	lt
87801354:	460b      	movlt	r3, r1
87801356:	1ad0      	subs	r0, r2, r3
87801358:	9a02      	ldr	r2, [sp, #8]
8780135a:	b982      	cbnz	r2, 8780137e <number+0xa6>
8780135c:	2800      	cmp	r0, #0
8780135e:	bfd8      	it	le
87801360:	f100 30ff 	addle.w	r0, r0, #4294967295	@ 0xffffffff
87801364:	dd0b      	ble.n	8780137e <number+0xa6>
87801366:	4420      	add	r0, r4
87801368:	2220      	movs	r2, #32
8780136a:	42a5      	cmp	r5, r4
8780136c:	f104 0401 	add.w	r4, r4, #1
87801370:	bf88      	it	hi
87801372:	f804 2c01 	strbhi.w	r2, [r4, #-1]
87801376:	4284      	cmp	r4, r0
87801378:	d1f7      	bne.n	8780136a <number+0x92>
8780137a:	f04f 30ff 	mov.w	r0, #4294967295	@ 0xffffffff
8780137e:	9a03      	ldr	r2, [sp, #12]
87801380:	b12a      	cbz	r2, 8780138e <number+0xb6>
87801382:	42ac      	cmp	r4, r5
87801384:	f104 0401 	add.w	r4, r4, #1
87801388:	bf38      	it	cc
8780138a:	f804 2c01 	strbcc.w	r2, [r4, #-1]
8780138e:	f1be 0f00 	cmp.w	lr, #0
87801392:	d011      	beq.n	878013b8 <number+0xe0>
87801394:	9f2e      	ldr	r7, [sp, #184]	@ 0xb8
87801396:	42ac      	cmp	r4, r5
87801398:	bf3c      	itt	cc
8780139a:	2230      	movcc	r2, #48	@ 0x30
8780139c:	7022      	strbcc	r2, [r4, #0]
8780139e:	1c62      	adds	r2, r4, #1
878013a0:	2f10      	cmp	r7, #16
878013a2:	bf18      	it	ne
878013a4:	4614      	movne	r4, r2
878013a6:	d107      	bne.n	878013b8 <number+0xe0>
878013a8:	4295      	cmp	r5, r2
878013aa:	f104 0402 	add.w	r4, r4, #2
878013ae:	bf84      	itt	hi
878013b0:	f04b 0258 	orrhi.w	r2, fp, #88	@ 0x58
878013b4:	f804 2c01 	strbhi.w	r2, [r4, #-1]
878013b8:	9a01      	ldr	r2, [sp, #4]
878013ba:	b992      	cbnz	r2, 878013e2 <number+0x10a>
878013bc:	f016 0f01 	tst.w	r6, #1
878013c0:	bf0c      	ite	eq
878013c2:	2220      	moveq	r2, #32
878013c4:	2230      	movne	r2, #48	@ 0x30
878013c6:	1e46      	subs	r6, r0, #1
878013c8:	f100 8193 	bmi.w	878016f2 <number+0x41a>
878013cc:	4420      	add	r0, r4
878013ce:	42a5      	cmp	r5, r4
878013d0:	f104 0401 	add.w	r4, r4, #1
878013d4:	bf88      	it	hi
878013d6:	f804 2c01 	strbhi.w	r2, [r4, #-1]
878013da:	4284      	cmp	r4, r0
878013dc:	d1f7      	bne.n	878013ce <number+0xf6>
878013de:	f04f 30ff 	mov.w	r0, #4294967295	@ 0xffffffff
878013e2:	4299      	cmp	r1, r3
878013e4:	bfbe      	ittt	lt
878013e6:	1a5b      	sublt	r3, r3, r1
878013e8:	2230      	movlt	r2, #48	@ 0x30
878013ea:	191b      	addlt	r3, r3, r4
878013ec:	f280 809d 	bge.w	8780152a <number+0x252>
878013f0:	42a5      	cmp	r5, r4
878013f2:	f104 0401 	add.w	r4, r4, #1
878013f6:	bf88      	it	hi
878013f8:	f804 2c01 	strbhi.w	r2, [r4, #-1]
878013fc:	429c      	cmp	r4, r3
878013fe:	d1f7      	bne.n	878013f0 <number+0x118>
87801400:	f1bc 0f00 	cmp.w	ip, #0
87801404:	f2c0 8096 	blt.w	87801534 <number+0x25c>
87801408:	aa0b      	add	r2, sp, #44	@ 0x2c
8780140a:	4462      	add	r2, ip
8780140c:	f10c 0c01 	add.w	ip, ip, #1
87801410:	449c      	add	ip, r3
87801412:	429d      	cmp	r5, r3
87801414:	f103 0301 	add.w	r3, r3, #1
87801418:	f102 32ff 	add.w	r2, r2, #4294967295	@ 0xffffffff
8780141c:	bf84      	itt	hi
8780141e:	7851      	ldrbhi	r1, [r2, #1]
87801420:	f803 1c01 	strbhi.w	r1, [r3, #-1]
87801424:	4563      	cmp	r3, ip
87801426:	d1f4      	bne.n	87801412 <number+0x13a>
87801428:	2800      	cmp	r0, #0
8780142a:	f340 8087 	ble.w	8780153c <number+0x264>
8780142e:	4460      	add	r0, ip
87801430:	2320      	movs	r3, #32
87801432:	4565      	cmp	r5, ip
87801434:	f10c 0c01 	add.w	ip, ip, #1
87801438:	bf88      	it	hi
8780143a:	f80c 3c01 	strbhi.w	r3, [ip, #-1]
8780143e:	4584      	cmp	ip, r0
87801440:	d1f7      	bne.n	87801432 <number+0x15a>
87801442:	b025      	add	sp, #148	@ 0x94
87801444:	e8bd 8ff0 	ldmia.w	sp!, {r4, r5, r6, r7, r8, r9, sl, fp, pc}
87801448:	9103      	str	r1, [sp, #12]
8780144a:	f1be 0f00 	cmp.w	lr, #0
8780144e:	f43f af73 	beq.w	87801338 <number+0x60>
87801452:	992e      	ldr	r1, [sp, #184]	@ 0xb8
87801454:	2910      	cmp	r1, #16
87801456:	992f      	ldr	r1, [sp, #188]	@ 0xbc
87801458:	d060      	beq.n	8780151c <number+0x244>
8780145a:	3901      	subs	r1, #1
8780145c:	912f      	str	r1, [sp, #188]	@ 0xbc
8780145e:	ea52 0103 	orrs.w	r1, r2, r3
87801462:	f43f af6d 	beq.w	87801340 <number+0x68>
87801466:	e00e      	b.n	87801486 <number+0x1ae>
87801468:	4252      	negs	r2, r2
8780146a:	eb63 0343 	sbc.w	r3, r3, r3, lsl #1
8780146e:	f1be 0f00 	cmp.w	lr, #0
87801472:	d037      	beq.n	878014e4 <number+0x20c>
87801474:	992e      	ldr	r1, [sp, #184]	@ 0xb8
87801476:	2910      	cmp	r1, #16
87801478:	992f      	ldr	r1, [sp, #188]	@ 0xbc
8780147a:	f000 813c 	beq.w	878016f6 <number+0x41e>
8780147e:	3902      	subs	r1, #2
87801480:	912f      	str	r1, [sp, #188]	@ 0xbc
87801482:	212d      	movs	r1, #45	@ 0x2d
87801484:	9103      	str	r1, [sp, #12]
87801486:	992e      	ldr	r1, [sp, #184]	@ 0xb8
87801488:	2003      	movs	r0, #3
8780148a:	f101 38ff 	add.w	r8, r1, #4294967295	@ 0xffffffff
8780148e:	f8df a288 	ldr.w	sl, [pc, #648]	@ 87801718 <number+0x440>
87801492:	f10d 072b 	add.w	r7, sp, #43	@ 0x2b
87801496:	2100      	movs	r1, #0
87801498:	f1c0 0920 	rsb	r9, r0, #32
8780149c:	44fa      	add	sl, pc
8780149e:	e9cd e404 	strd	lr, r4, [sp, #16]
878014a2:	b2d4      	uxtb	r4, r2
878014a4:	f1b0 0e20 	subs.w	lr, r0, #32
878014a8:	ea04 0408 	and.w	r4, r4, r8
878014ac:	fa22 f200 	lsr.w	r2, r2, r0
878014b0:	fa43 fe0e 	asr.w	lr, r3, lr
878014b4:	468c      	mov	ip, r1
878014b6:	f101 0101 	add.w	r1, r1, #1
878014ba:	f81a 4004 	ldrb.w	r4, [sl, r4]
878014be:	ea4b 0404 	orr.w	r4, fp, r4
878014c2:	f807 4f01 	strb.w	r4, [r7, #1]!
878014c6:	fa03 f409 	lsl.w	r4, r3, r9
878014ca:	ea42 0204 	orr.w	r2, r2, r4
878014ce:	fa43 f300 	asr.w	r3, r3, r0
878014d2:	bf58      	it	pl
878014d4:	ea42 020e 	orrpl.w	r2, r2, lr
878014d8:	ea52 0403 	orrs.w	r4, r2, r3
878014dc:	d1e1      	bne.n	878014a2 <number+0x1ca>
878014de:	e9dd e404 	ldrd	lr, r4, [sp, #16]
878014e2:	e733      	b.n	8780134c <number+0x74>
878014e4:	992f      	ldr	r1, [sp, #188]	@ 0xbc
878014e6:	3901      	subs	r1, #1
878014e8:	912f      	str	r1, [sp, #188]	@ 0xbc
878014ea:	212d      	movs	r1, #45	@ 0x2d
878014ec:	9103      	str	r1, [sp, #12]
878014ee:	992e      	ldr	r1, [sp, #184]	@ 0xb8
878014f0:	290a      	cmp	r1, #10
878014f2:	d027      	beq.n	87801544 <number+0x26c>
878014f4:	2910      	cmp	r1, #16
878014f6:	bf1c      	itt	ne
878014f8:	f101 38ff 	addne.w	r8, r1, #4294967295	@ 0xffffffff
878014fc:	2003      	movne	r0, #3
878014fe:	d1c6      	bne.n	8780148e <number+0x1b6>
87801500:	f04f 080f 	mov.w	r8, #15
87801504:	2004      	movs	r0, #4
87801506:	e7c2      	b.n	8780148e <number+0x1b6>
87801508:	992f      	ldr	r1, [sp, #188]	@ 0xbc
8780150a:	3901      	subs	r1, #1
8780150c:	912f      	str	r1, [sp, #188]	@ 0xbc
8780150e:	212b      	movs	r1, #43	@ 0x2b
87801510:	9103      	str	r1, [sp, #12]
87801512:	f1be 0f00 	cmp.w	lr, #0
87801516:	f43f af0f 	beq.w	87801338 <number+0x60>
8780151a:	e79a      	b.n	87801452 <number+0x17a>
8780151c:	3902      	subs	r1, #2
8780151e:	912f      	str	r1, [sp, #188]	@ 0xbc
87801520:	ea52 0103 	orrs.w	r1, r2, r3
87801524:	f43f af0c 	beq.w	87801340 <number+0x68>
87801528:	e7ea      	b.n	87801500 <number+0x228>
8780152a:	4623      	mov	r3, r4
8780152c:	f1bc 0f00 	cmp.w	ip, #0
87801530:	f6bf af6a 	bge.w	87801408 <number+0x130>
87801534:	469c      	mov	ip, r3
87801536:	2800      	cmp	r0, #0
87801538:	f73f af79 	bgt.w	8780142e <number+0x156>
8780153c:	4660      	mov	r0, ip
8780153e:	b025      	add	sp, #148	@ 0x94
87801540:	e8bd 8ff0 	ldmia.w	sp!, {r4, r5, r6, r7, r8, r9, sl, fp, pc}
87801544:	f248 609f 	movw	r0, #34463	@ 0x869f
87801548:	f2c0 0001 	movt	r0, #1
8780154c:	2100      	movs	r1, #0
8780154e:	4290      	cmp	r0, r2
87801550:	4607      	mov	r7, r0
87801552:	4199      	sbcs	r1, r3
87801554:	e9cd 2308 	strd	r2, r3, [sp, #32]
87801558:	f080 80d5 	bcs.w	87801706 <number+0x42e>
8780155c:	f248 61a0 	movw	r1, #34464	@ 0x86a0
87801560:	f2c0 0101 	movt	r1, #1
87801564:	f645 20c5 	movw	r0, #23237	@ 0x5ac5
87801568:	f6c0 207c 	movt	r0, #2684	@ 0xa7c
8780156c:	e9cd eb04 	strd	lr, fp, [sp, #16]
87801570:	f10d 0831 	add.w	r8, sp, #49	@ 0x31
87801574:	46ba      	mov	sl, r7
87801576:	468b      	mov	fp, r1
87801578:	4681      	mov	r9, r0
8780157a:	e9cd 4506 	strd	r4, r5, [sp, #24]
8780157e:	9631      	str	r6, [sp, #196]	@ 0xc4
87801580:	e057      	b.n	87801632 <number+0x35a>
87801582:	fba9 0101 	umull	r0, r1, r9, r1
87801586:	9309      	str	r3, [sp, #36]	@ 0x24
87801588:	09c8      	lsrs	r0, r1, #7
8780158a:	fb0b 2010 	mls	r0, fp, r0, r2
8780158e:	09ca      	lsrs	r2, r1, #7
87801590:	9208      	str	r2, [sp, #32]
87801592:	f3c0 2c03 	ubfx	ip, r0, #8, #4
87801596:	f3c0 1103 	ubfx	r1, r0, #4, #4
8780159a:	0b04      	lsrs	r4, r0, #12
8780159c:	eb01 050c 	add.w	r5, r1, ip
878015a0:	4425      	add	r5, r4
878015a2:	2606      	movs	r6, #6
878015a4:	f000 000f 	and.w	r0, r0, #15
878015a8:	eb04 07c4 	add.w	r7, r4, r4, lsl #3
878015ac:	440f      	add	r7, r1
878015ae:	eb0c 018c 	add.w	r1, ip, ip, lsl #2
878015b2:	440f      	add	r7, r1
878015b4:	f04f 0e0a 	mov.w	lr, #10
878015b8:	fb06 0005 	mla	r0, r6, r5, r0
878015bc:	25cd      	movs	r5, #205	@ 0xcd
878015be:	260d      	movs	r6, #13
878015c0:	4592      	cmp	sl, r2
878015c2:	fb05 f100 	mul.w	r1, r5, r0
878015c6:	ea4f 21d1 	mov.w	r1, r1, lsr #11
878015ca:	440f      	add	r7, r1
878015cc:	fb0e 0011 	mls	r0, lr, r1, r0
878015d0:	fb05 f107 	mul.w	r1, r5, r7
878015d4:	f100 0030 	add.w	r0, r0, #48	@ 0x30
878015d8:	f808 0c05 	strb.w	r0, [r8, #-5]
878015dc:	f04f 0000 	mov.w	r0, #0
878015e0:	ea4f 21d1 	mov.w	r1, r1, lsr #11
878015e4:	4198      	sbcs	r0, r3
878015e6:	eb01 0c4c 	add.w	ip, r1, ip, lsl #1
878015ea:	fb0e 7111 	mls	r1, lr, r1, r7
878015ee:	fb06 f60c 	mul.w	r6, r6, ip
878015f2:	f101 0130 	add.w	r1, r1, #48	@ 0x30
878015f6:	f808 1c04 	strb.w	r1, [r8, #-4]
878015fa:	4641      	mov	r1, r8
878015fc:	f108 0805 	add.w	r8, r8, #5
87801600:	ea4f 16d6 	mov.w	r6, r6, lsr #7
87801604:	eb06 0484 	add.w	r4, r6, r4, lsl #2
87801608:	fb0e c616 	mls	r6, lr, r6, ip
8780160c:	fb04 f505 	mul.w	r5, r4, r5
87801610:	f106 0630 	add.w	r6, r6, #48	@ 0x30
87801614:	f808 6c08 	strb.w	r6, [r8, #-8]
87801618:	ea4f 25d5 	mov.w	r5, r5, lsr #11
8780161c:	fb0e 4415 	mls	r4, lr, r5, r4
87801620:	f105 0530 	add.w	r5, r5, #48	@ 0x30
87801624:	f808 5c06 	strb.w	r5, [r8, #-6]
87801628:	f104 0430 	add.w	r4, r4, #48	@ 0x30
8780162c:	f808 4c07 	strb.w	r4, [r8, #-7]
87801630:	d209      	bcs.n	87801646 <number+0x36e>
87801632:	0951      	lsrs	r1, r2, #5
87801634:	2b00      	cmp	r3, #0
87801636:	d0a4      	beq.n	87801582 <number+0x2aa>
87801638:	4659      	mov	r1, fp
8780163a:	a808      	add	r0, sp, #32
8780163c:	f7ff fb54 	bl	87800ce8 <__div64_32>
87801640:	e9dd 2308 	ldrd	r2, r3, [sp, #32]
87801644:	e7a5      	b.n	87801592 <number+0x2ba>
87801646:	e9dd eb04 	ldrd	lr, fp, [sp, #16]
8780164a:	f10d 0a2c 	add.w	sl, sp, #44	@ 0x2c
8780164e:	e9dd 4506 	ldrd	r4, r5, [sp, #24]
87801652:	9e31      	ldr	r6, [sp, #196]	@ 0xc4
87801654:	f3c2 1703 	ubfx	r7, r2, #4, #4
87801658:	f3c2 2003 	ubfx	r0, r2, #8, #4
8780165c:	ea4f 3812 	mov.w	r8, r2, lsr #12
87801660:	183b      	adds	r3, r7, r0
87801662:	f002 020f 	and.w	r2, r2, #15
87801666:	f04f 0c06 	mov.w	ip, #6
8780166a:	4443      	add	r3, r8
8780166c:	f04f 09cd 	mov.w	r9, #205	@ 0xcd
87801670:	fb0c 2303 	mla	r3, ip, r3, r2
87801674:	eb08 02c8 	add.w	r2, r8, r8, lsl #3
87801678:	4417      	add	r7, r2
8780167a:	eb00 0280 	add.w	r2, r0, r0, lsl #2
8780167e:	4417      	add	r7, r2
87801680:	f04f 0c0a 	mov.w	ip, #10
87801684:	fb09 f203 	mul.w	r2, r9, r3
87801688:	0ad2      	lsrs	r2, r2, #11
8780168a:	fb0c 3312 	mls	r3, ip, r2, r3
8780168e:	19d2      	adds	r2, r2, r7
87801690:	f103 0330 	add.w	r3, r3, #48	@ 0x30
87801694:	700b      	strb	r3, [r1, #0]
87801696:	bf08      	it	eq
87801698:	3101      	addeq	r1, #1
8780169a:	d025      	beq.n	878016e8 <number+0x410>
8780169c:	fb09 f302 	mul.w	r3, r9, r2
878016a0:	0adb      	lsrs	r3, r3, #11
878016a2:	eb03 0040 	add.w	r0, r3, r0, lsl #1
878016a6:	fb0c 2213 	mls	r2, ip, r3, r2
878016aa:	f102 0330 	add.w	r3, r2, #48	@ 0x30
878016ae:	704b      	strb	r3, [r1, #1]
878016b0:	ea58 0300 	orrs.w	r3, r8, r0
878016b4:	bf08      	it	eq
878016b6:	3102      	addeq	r1, #2
878016b8:	d016      	beq.n	878016e8 <number+0x410>
878016ba:	230d      	movs	r3, #13
878016bc:	fb00 f303 	mul.w	r3, r0, r3
878016c0:	09db      	lsrs	r3, r3, #7
878016c2:	fb0c 0013 	mls	r0, ip, r3, r0
878016c6:	eb13 0388 	adds.w	r3, r3, r8, lsl #2
878016ca:	f100 0230 	add.w	r2, r0, #48	@ 0x30
878016ce:	708a      	strb	r2, [r1, #2]
878016d0:	bf08      	it	eq
878016d2:	3103      	addeq	r1, #3
878016d4:	d008      	beq.n	878016e8 <number+0x410>
878016d6:	fb09 f203 	mul.w	r2, r9, r3
878016da:	0ad2      	lsrs	r2, r2, #11
878016dc:	fb0c 3312 	mls	r3, ip, r2, r3
878016e0:	3330      	adds	r3, #48	@ 0x30
878016e2:	70cb      	strb	r3, [r1, #3]
878016e4:	b99a      	cbnz	r2, 8780170e <number+0x436>
878016e6:	3104      	adds	r1, #4
878016e8:	eba1 010a 	sub.w	r1, r1, sl
878016ec:	f101 3cff 	add.w	ip, r1, #4294967295	@ 0xffffffff
878016f0:	e62c      	b.n	8780134c <number+0x74>
878016f2:	4630      	mov	r0, r6
878016f4:	e675      	b.n	878013e2 <number+0x10a>
878016f6:	3903      	subs	r1, #3
878016f8:	f04f 080f 	mov.w	r8, #15
878016fc:	912f      	str	r1, [sp, #188]	@ 0xbc
878016fe:	2004      	movs	r0, #4
87801700:	212d      	movs	r1, #45	@ 0x2d
87801702:	9103      	str	r1, [sp, #12]
87801704:	e6c3      	b.n	8780148e <number+0x1b6>
87801706:	f10d 0a2c 	add.w	sl, sp, #44	@ 0x2c
8780170a:	4651      	mov	r1, sl
8780170c:	e7a2      	b.n	87801654 <number+0x37c>
8780170e:	3230      	adds	r2, #48	@ 0x30
87801710:	3105      	adds	r1, #5
87801712:	f801 2c01 	strb.w	r2, [r1, #-1]
87801716:	e7e7      	b.n	878016e8 <number+0x410>
87801718:	0000186c 	andeq	r1, r0, ip, ror #16

8780171c <simple_strtoul>:
8780171c:	b570      	push	{r4, r5, r6, lr}
8780171e:	4605      	mov	r5, r0
87801720:	4c35      	ldr	r4, [pc, #212]	@ (878017f8 <simple_strtoul+0xdc>)
87801722:	7803      	ldrb	r3, [r0, #0]
87801724:	447c      	add	r4, pc
87801726:	bb4a      	cbnz	r2, 8780177c <simple_strtoul+0x60>
87801728:	2b30      	cmp	r3, #48	@ 0x30
8780172a:	d042      	beq.n	878017b2 <simple_strtoul+0x96>
8780172c:	4a33      	ldr	r2, [pc, #204]	@ (878017fc <simple_strtoul+0xe0>)
8780172e:	469e      	mov	lr, r3
87801730:	58a6      	ldr	r6, [r4, r2]
87801732:	220a      	movs	r2, #10
87801734:	f816 c003 	ldrb.w	ip, [r6, r3]
87801738:	f00c 0044 	and.w	r0, ip, #68	@ 0x44
8780173c:	b1d8      	cbz	r0, 87801776 <simple_strtoul+0x5a>
8780173e:	2000      	movs	r0, #0
87801740:	e009      	b.n	87801756 <simple_strtoul+0x3a>
87801742:	f815 3f01 	ldrb.w	r3, [r5, #1]!
87801746:	fb02 c000 	mla	r0, r2, r0, ip
8780174a:	469e      	mov	lr, r3
8780174c:	f816 c003 	ldrb.w	ip, [r6, r3]
87801750:	f01c 0f44 	tst.w	ip, #68	@ 0x44
87801754:	d00f      	beq.n	87801776 <simple_strtoul+0x5a>
87801756:	f01c 0f04 	tst.w	ip, #4
8780175a:	bf18      	it	ne
8780175c:	f1ae 0c30 	subne.w	ip, lr, #48	@ 0x30
87801760:	d107      	bne.n	87801772 <simple_strtoul+0x56>
87801762:	f1a3 0420 	sub.w	r4, r3, #32
87801766:	f01c 0f02 	tst.w	ip, #2
8780176a:	bf18      	it	ne
8780176c:	b2e3      	uxtbne	r3, r4
8780176e:	f1a3 0c37 	sub.w	ip, r3, #55	@ 0x37
87801772:	4594      	cmp	ip, r2
87801774:	d3e5      	bcc.n	87801742 <simple_strtoul+0x26>
87801776:	b101      	cbz	r1, 8780177a <simple_strtoul+0x5e>
87801778:	600d      	str	r5, [r1, #0]
8780177a:	bd70      	pop	{r4, r5, r6, pc}
8780177c:	481f      	ldr	r0, [pc, #124]	@ (878017fc <simple_strtoul+0xe0>)
8780177e:	2a10      	cmp	r2, #16
87801780:	5826      	ldr	r6, [r4, r0]
87801782:	d005      	beq.n	87801790 <simple_strtoul+0x74>
87801784:	f816 c003 	ldrb.w	ip, [r6, r3]
87801788:	469e      	mov	lr, r3
8780178a:	f00c 0044 	and.w	r0, ip, #68	@ 0x44
8780178e:	e7d5      	b.n	8780173c <simple_strtoul+0x20>
87801790:	2b30      	cmp	r3, #48	@ 0x30
87801792:	d1f7      	bne.n	87801784 <simple_strtoul+0x68>
87801794:	7868      	ldrb	r0, [r5, #1]
87801796:	5c34      	ldrb	r4, [r6, r0]
87801798:	07a4      	lsls	r4, r4, #30
8780179a:	bf44      	itt	mi
8780179c:	3820      	submi	r0, #32
8780179e:	b2c0      	uxtbmi	r0, r0
878017a0:	2858      	cmp	r0, #88	@ 0x58
878017a2:	d026      	beq.n	878017f2 <simple_strtoul+0xd6>
878017a4:	f896 c030 	ldrb.w	ip, [r6, #48]	@ 0x30
878017a8:	f04f 0e30 	mov.w	lr, #48	@ 0x30
878017ac:	f00c 0044 	and.w	r0, ip, #68	@ 0x44
878017b0:	e7c4      	b.n	8780173c <simple_strtoul+0x20>
878017b2:	4a12      	ldr	r2, [pc, #72]	@ (878017fc <simple_strtoul+0xe0>)
878017b4:	3001      	adds	r0, #1
878017b6:	7803      	ldrb	r3, [r0, #0]
878017b8:	469e      	mov	lr, r3
878017ba:	58a6      	ldr	r6, [r4, r2]
878017bc:	f816 c003 	ldrb.w	ip, [r6, r3]
878017c0:	f01c 0f02 	tst.w	ip, #2
878017c4:	bf16      	itet	ne
878017c6:	f1a3 0220 	subne.w	r2, r3, #32
878017ca:	461a      	moveq	r2, r3
878017cc:	b2d2      	uxtbne	r2, r2
878017ce:	2a58      	cmp	r2, #88	@ 0x58
878017d0:	d004      	beq.n	878017dc <simple_strtoul+0xc0>
878017d2:	4605      	mov	r5, r0
878017d4:	2208      	movs	r2, #8
878017d6:	f00c 0044 	and.w	r0, ip, #68	@ 0x44
878017da:	e7af      	b.n	8780173c <simple_strtoul+0x20>
878017dc:	78ac      	ldrb	r4, [r5, #2]
878017de:	5d32      	ldrb	r2, [r6, r4]
878017e0:	f012 0f44 	tst.w	r2, #68	@ 0x44
878017e4:	d0f5      	beq.n	878017d2 <simple_strtoul+0xb6>
878017e6:	4694      	mov	ip, r2
878017e8:	46a6      	mov	lr, r4
878017ea:	3502      	adds	r5, #2
878017ec:	4623      	mov	r3, r4
878017ee:	2210      	movs	r2, #16
878017f0:	e7a5      	b.n	8780173e <simple_strtoul+0x22>
878017f2:	78ab      	ldrb	r3, [r5, #2]
878017f4:	3502      	adds	r5, #2
878017f6:	e7c5      	b.n	87801784 <simple_strtoul+0x68>
878017f8:	ffffe8d8 			@ <UNDEFINED> instruction: 0xffffe8d8
878017fc:	00000194 	muleq	r0, r4, r1

87801800 <simple_strtol>:
87801800:	f890 c000 	ldrb.w	ip, [r0]
87801804:	f1bc 0f2d 	cmp.w	ip, #45	@ 0x2d
87801808:	d001      	beq.n	8780180e <simple_strtol+0xe>
8780180a:	f7ff bf87 	b.w	8780171c <simple_strtoul>
8780180e:	b508      	push	{r3, lr}
87801810:	3001      	adds	r0, #1
87801812:	f7ff ff83 	bl	8780171c <simple_strtoul>
87801816:	4240      	negs	r0, r0
87801818:	bd08      	pop	{r3, pc}
8780181a:	bf00      	nop

8780181c <simple_strtoull>:
8780181c:	e92d 43f0 	stmdb	sp!, {r4, r5, r6, r7, r8, r9, lr}
87801820:	4605      	mov	r5, r0
87801822:	4b44      	ldr	r3, [pc, #272]	@ (87801934 <simple_strtoull+0x118>)
87801824:	f890 e000 	ldrb.w	lr, [r0]
87801828:	4688      	mov	r8, r1
8780182a:	447b      	add	r3, pc
8780182c:	2a00      	cmp	r2, #0
8780182e:	d13f      	bne.n	878018b0 <simple_strtoull+0x94>
87801830:	f1be 0f30 	cmp.w	lr, #48	@ 0x30
87801834:	d058      	beq.n	878018e8 <simple_strtoull+0xcc>
87801836:	4a40      	ldr	r2, [pc, #256]	@ (87801938 <simple_strtoull+0x11c>)
87801838:	46f4      	mov	ip, lr
8780183a:	589f      	ldr	r7, [r3, r2]
8780183c:	220a      	movs	r2, #10
8780183e:	f817 300e 	ldrb.w	r3, [r7, lr]
87801842:	f003 0044 	and.w	r0, r3, #68	@ 0x44
87801846:	2800      	cmp	r0, #0
87801848:	d06e      	beq.n	87801928 <simple_strtoull+0x10c>
8780184a:	2600      	movs	r6, #0
8780184c:	4630      	mov	r0, r6
8780184e:	4631      	mov	r1, r6
87801850:	e00b      	b.n	8780186a <simple_strtoull+0x4e>
87801852:	f815 ef01 	ldrb.w	lr, [r5, #1]!
87801856:	eb14 000c 	adds.w	r0, r4, ip
8780185a:	eb43 0109 	adc.w	r1, r3, r9
8780185e:	46f4      	mov	ip, lr
87801860:	f817 300e 	ldrb.w	r3, [r7, lr]
87801864:	f013 0f44 	tst.w	r3, #68	@ 0x44
87801868:	d01b      	beq.n	878018a2 <simple_strtoull+0x86>
8780186a:	075c      	lsls	r4, r3, #29
8780186c:	bf48      	it	mi
8780186e:	f1ac 0c30 	submi.w	ip, ip, #48	@ 0x30
87801872:	d409      	bmi.n	87801888 <simple_strtoull+0x6c>
87801874:	f1ae 0e20 	sub.w	lr, lr, #32
87801878:	079b      	lsls	r3, r3, #30
8780187a:	f1ac 0c37 	sub.w	ip, ip, #55	@ 0x37
8780187e:	bf44      	itt	mi
87801880:	fa5f fe8e 	uxtbmi.w	lr, lr
87801884:	f1ae 0c37 	submi.w	ip, lr, #55	@ 0x37
87801888:	fb00 f306 	mul.w	r3, r0, r6
8780188c:	ea4f 79ec 	mov.w	r9, ip, asr #31
87801890:	fba0 4e02 	umull	r4, lr, r0, r2
87801894:	4594      	cmp	ip, r2
87801896:	fb02 3301 	mla	r3, r2, r1, r3
8780189a:	4473      	add	r3, lr
8780189c:	f179 0e00 	sbcs.w	lr, r9, #0
878018a0:	d3d7      	bcc.n	87801852 <simple_strtoull+0x36>
878018a2:	f1b8 0f00 	cmp.w	r8, #0
878018a6:	d001      	beq.n	878018ac <simple_strtoull+0x90>
878018a8:	f8c8 5000 	str.w	r5, [r8]
878018ac:	e8bd 83f0 	ldmia.w	sp!, {r4, r5, r6, r7, r8, r9, pc}
878018b0:	4921      	ldr	r1, [pc, #132]	@ (87801938 <simple_strtoull+0x11c>)
878018b2:	2a10      	cmp	r2, #16
878018b4:	585f      	ldr	r7, [r3, r1]
878018b6:	d005      	beq.n	878018c4 <simple_strtoull+0xa8>
878018b8:	f817 300e 	ldrb.w	r3, [r7, lr]
878018bc:	46f4      	mov	ip, lr
878018be:	f003 0044 	and.w	r0, r3, #68	@ 0x44
878018c2:	e7c0      	b.n	87801846 <simple_strtoull+0x2a>
878018c4:	f1be 0f30 	cmp.w	lr, #48	@ 0x30
878018c8:	d1f6      	bne.n	878018b8 <simple_strtoull+0x9c>
878018ca:	7843      	ldrb	r3, [r0, #1]
878018cc:	5cf9      	ldrb	r1, [r7, r3]
878018ce:	078e      	lsls	r6, r1, #30
878018d0:	bf44      	itt	mi
878018d2:	3b20      	submi	r3, #32
878018d4:	b2db      	uxtbmi	r3, r3
878018d6:	2b58      	cmp	r3, #88	@ 0x58
878018d8:	d028      	beq.n	8780192c <simple_strtoull+0x110>
878018da:	f897 3030 	ldrb.w	r3, [r7, #48]	@ 0x30
878018de:	f04f 0c30 	mov.w	ip, #48	@ 0x30
878018e2:	f003 0044 	and.w	r0, r3, #68	@ 0x44
878018e6:	e7ae      	b.n	87801846 <simple_strtoull+0x2a>
878018e8:	4a13      	ldr	r2, [pc, #76]	@ (87801938 <simple_strtoull+0x11c>)
878018ea:	1c41      	adds	r1, r0, #1
878018ec:	f890 e001 	ldrb.w	lr, [r0, #1]
878018f0:	46f4      	mov	ip, lr
878018f2:	589f      	ldr	r7, [r3, r2]
878018f4:	f817 300e 	ldrb.w	r3, [r7, lr]
878018f8:	079a      	lsls	r2, r3, #30
878018fa:	bf4a      	itet	mi
878018fc:	f1ae 0220 	submi.w	r2, lr, #32
87801900:	4672      	movpl	r2, lr
87801902:	b2d2      	uxtbmi	r2, r2
87801904:	2a58      	cmp	r2, #88	@ 0x58
87801906:	d004      	beq.n	87801912 <simple_strtoull+0xf6>
87801908:	460d      	mov	r5, r1
8780190a:	f003 0044 	and.w	r0, r3, #68	@ 0x44
8780190e:	2208      	movs	r2, #8
87801910:	e799      	b.n	87801846 <simple_strtoull+0x2a>
87801912:	7880      	ldrb	r0, [r0, #2]
87801914:	5c3a      	ldrb	r2, [r7, r0]
87801916:	f012 0f44 	tst.w	r2, #68	@ 0x44
8780191a:	d0f5      	beq.n	87801908 <simple_strtoull+0xec>
8780191c:	4613      	mov	r3, r2
8780191e:	4684      	mov	ip, r0
87801920:	3502      	adds	r5, #2
87801922:	4686      	mov	lr, r0
87801924:	2210      	movs	r2, #16
87801926:	e790      	b.n	8780184a <simple_strtoull+0x2e>
87801928:	4601      	mov	r1, r0
8780192a:	e7ba      	b.n	878018a2 <simple_strtoull+0x86>
8780192c:	f890 e002 	ldrb.w	lr, [r0, #2]
87801930:	3502      	adds	r5, #2
87801932:	e7c1      	b.n	878018b8 <simple_strtoull+0x9c>
87801934:	ffffe7d2 			@ <UNDEFINED> instruction: 0xffffe7d2
87801938:	00000194 	muleq	r0, r4, r1

8780193c <simple_strtoll>:
8780193c:	f890 c000 	ldrb.w	ip, [r0]
87801940:	f1bc 0f2d 	cmp.w	ip, #45	@ 0x2d
87801944:	d001      	beq.n	8780194a <simple_strtoll+0xe>
87801946:	f7ff bf69 	b.w	8780181c <simple_strtoull>
8780194a:	b508      	push	{r3, lr}
8780194c:	3001      	adds	r0, #1
8780194e:	f7ff ff65 	bl	8780181c <simple_strtoull>
87801952:	4240      	negs	r0, r0
87801954:	eb61 0141 	sbc.w	r1, r1, r1, lsl #1
87801958:	bd08      	pop	{r3, pc}
8780195a:	bf00      	nop

8780195c <vsnprintf>:
8780195c:	e92d 4ff0 	stmdb	sp!, {r4, r5, r6, r7, r8, r9, sl, fp, lr}
87801960:	1e0f      	subs	r7, r1, #0
87801962:	f8df a688 	ldr.w	sl, [pc, #1672]	@ 87801fec <vsnprintf+0x690>
87801966:	b089      	sub	sp, #36	@ 0x24
87801968:	44fa      	add	sl, pc
8780196a:	f2c0 82d5 	blt.w	87801f18 <vsnprintf+0x5bc>
8780196e:	f107 38ff 	add.w	r8, r7, #4294967295	@ 0xffffffff
87801972:	4699      	mov	r9, r3
87801974:	4480      	add	r8, r0
87801976:	1e43      	subs	r3, r0, #1
87801978:	4683      	mov	fp, r0
8780197a:	4598      	cmp	r8, r3
8780197c:	7810      	ldrb	r0, [r2, #0]
8780197e:	d31c      	bcc.n	878019ba <vsnprintf+0x5e>
87801980:	2800      	cmp	r0, #0
87801982:	f000 82f5 	beq.w	87801f70 <vsnprintf+0x614>
87801986:	465c      	mov	r4, fp
87801988:	4611      	mov	r1, r2
8780198a:	9705      	str	r7, [sp, #20]
8780198c:	2825      	cmp	r0, #37	@ 0x25
8780198e:	d01c      	beq.n	878019ca <vsnprintf+0x6e>
87801990:	45a0      	cmp	r8, r4
87801992:	bf28      	it	cs
87801994:	7020      	strbcs	r0, [r4, #0]
87801996:	3101      	adds	r1, #1
87801998:	3401      	adds	r4, #1
8780199a:	7808      	ldrb	r0, [r1, #0]
8780199c:	2800      	cmp	r0, #0
8780199e:	d1f5      	bne.n	8780198c <vsnprintf+0x30>
878019a0:	9f05      	ldr	r7, [sp, #20]
878019a2:	eba4 000b 	sub.w	r0, r4, fp
878019a6:	45a0      	cmp	r8, r4
878019a8:	f080 81e1 	bcs.w	87801d6e <vsnprintf+0x412>
878019ac:	b117      	cbz	r7, 878019b4 <vsnprintf+0x58>
878019ae:	2300      	movs	r3, #0
878019b0:	f888 3000 	strb.w	r3, [r8]
878019b4:	b009      	add	sp, #36	@ 0x24
878019b6:	e8bd 8ff0 	ldmia.w	sp!, {r4, r5, r6, r7, r8, r9, sl, fp, pc}
878019ba:	f1cb 0700 	rsb	r7, fp, #0
878019be:	2800      	cmp	r0, #0
878019c0:	f000 81d4 	beq.w	87801d6c <vsnprintf+0x410>
878019c4:	f04f 38ff 	mov.w	r8, #4294967295	@ 0xffffffff
878019c8:	e7dd      	b.n	87801986 <vsnprintf+0x2a>
878019ca:	2200      	movs	r2, #0
878019cc:	784b      	ldrb	r3, [r1, #1]
878019ce:	1c4d      	adds	r5, r1, #1
878019d0:	f1a3 0020 	sub.w	r0, r3, #32
878019d4:	2810      	cmp	r0, #16
878019d6:	d80a      	bhi.n	878019ee <vsnprintf+0x92>
878019d8:	e8df f000 	tbb	[pc, r0]
878019dc:	9709099b 			@ <UNDEFINED> instruction: 0x9709099b
878019e0:	09090909 	stmdbeq	r9, {r0, r3, r8, fp}
878019e4:	93090909 	movwls	r0, #39177	@ 0x9909
878019e8:	09098f09 	stmdbeq	r9, {r0, r3, r8, r9, sl, fp, pc}
878019ec:	f8df008b 			@ <UNDEFINED> instruction: 0xf8df008b
878019f0:	0600      	lsls	r0, r0, #24
878019f2:	469c      	mov	ip, r3
878019f4:	f85a 0000 	ldr.w	r0, [sl, r0]
878019f8:	5cc6      	ldrb	r6, [r0, r3]
878019fa:	0776      	lsls	r6, r6, #29
878019fc:	f100 81a8 	bmi.w	87801d50 <vsnprintf+0x3f4>
87801a00:	2b2a      	cmp	r3, #42	@ 0x2a
87801a02:	bf18      	it	ne
87801a04:	f04f 36ff 	movne.w	r6, #4294967295	@ 0xffffffff
87801a08:	d108      	bne.n	87801a1c <vsnprintf+0xc0>
87801a0a:	f859 6b04 	ldr.w	r6, [r9], #4
87801a0e:	1c8d      	adds	r5, r1, #2
87801a10:	788b      	ldrb	r3, [r1, #2]
87801a12:	2e00      	cmp	r6, #0
87801a14:	bfbc      	itt	lt
87801a16:	4276      	neglt	r6, r6
87801a18:	f042 0210 	orrlt.w	r2, r2, #16
87801a1c:	2b2e      	cmp	r3, #46	@ 0x2e
87801a1e:	bf18      	it	ne
87801a20:	f04f 3cff 	movne.w	ip, #4294967295	@ 0xffffffff
87801a24:	f000 8168 	beq.w	87801cf8 <vsnprintf+0x39c>
87801a28:	2b7a      	cmp	r3, #122	@ 0x7a
87801a2a:	f200 817d 	bhi.w	87801d28 <vsnprintf+0x3cc>
87801a2e:	2b67      	cmp	r3, #103	@ 0x67
87801a30:	d873      	bhi.n	87801b1a <vsnprintf+0x1be>
87801a32:	2b4c      	cmp	r3, #76	@ 0x4c
87801a34:	f000 80de 	beq.w	87801bf4 <vsnprintf+0x298>
87801a38:	2b5a      	cmp	r3, #90	@ 0x5a
87801a3a:	f000 80db 	beq.w	87801bf4 <vsnprintf+0x298>
87801a3e:	3b25      	subs	r3, #37	@ 0x25
87801a40:	2b53      	cmp	r3, #83	@ 0x53
87801a42:	f200 8171 	bhi.w	87801d28 <vsnprintf+0x3cc>
87801a46:	e8df f013 	tbh	[pc, r3, lsl #1]
87801a4a:	016f01cb 	smulbteq	pc, fp, r1	@ <UNPREDICTABLE>
87801a4e:	016f016f 	cmneq	pc, pc, ror #2
87801a52:	016f016f 	cmneq	pc, pc, ror #2
87801a56:	016f016f 	cmneq	pc, pc, ror #2
87801a5a:	016f016f 	cmneq	pc, pc, ror #2
87801a5e:	016f016f 	cmneq	pc, pc, ror #2
87801a62:	016f016f 	cmneq	pc, pc, ror #2
87801a66:	016f016f 	cmneq	pc, pc, ror #2
87801a6a:	016f016f 	cmneq	pc, pc, ror #2
87801a6e:	016f016f 	cmneq	pc, pc, ror #2
87801a72:	016f016f 	cmneq	pc, pc, ror #2
87801a76:	016f016f 	cmneq	pc, pc, ror #2
87801a7a:	016f016f 	cmneq	pc, pc, ror #2
87801a7e:	016f016f 	cmneq	pc, pc, ror #2
87801a82:	016f016f 	cmneq	pc, pc, ror #2
87801a86:	016f016f 	cmneq	pc, pc, ror #2
87801a8a:	016f016f 	cmneq	pc, pc, ror #2
87801a8e:	016f016f 	cmneq	pc, pc, ror #2
87801a92:	016f016f 	cmneq	pc, pc, ror #2
87801a96:	016f016f 	cmneq	pc, pc, ror #2
87801a9a:	016f016f 	cmneq	pc, pc, ror #2
87801a9e:	016f016f 	cmneq	pc, pc, ror #2
87801aa2:	016f016f 	cmneq	pc, pc, ror #2
87801aa6:	016f016f 	cmneq	pc, pc, ror #2
87801aaa:	016f016f 	cmneq	pc, pc, ror #2
87801aae:	027f016f 	rsbseq	r0, pc, #-1073741797	@ 0xc000001b
87801ab2:	016f016f 	cmneq	pc, pc, ror #2
87801ab6:	016f016f 	cmneq	pc, pc, ror #2
87801aba:	016f016f 	cmneq	pc, pc, ror #2
87801abe:	016f016f 	cmneq	pc, pc, ror #2
87801ac2:	016f016f 	cmneq	pc, pc, ror #2
87801ac6:	023d01a9 	eorseq	r0, sp, #1073741866	@ 0x4000002a
87801aca:	016f016f 	cmneq	pc, pc, ror #2
87801ace:	016f016f 	cmneq	pc, pc, ror #2
87801ad2:	016f023d 	cmneq	pc, sp, lsr r2	@ <UNPREDICTABLE>
87801ad6:	016f016f 	cmneq	pc, pc, ror #2
87801ada:	0232016f 	eorseq	r0, r2, #-1073741797	@ 0xc000001b
87801ade:	0218027d 	andseq	r0, r8, #-805306361	@ 0xd0000007
87801ae2:	016f016f 	cmneq	pc, pc, ror #2
87801ae6:	016f01d8 	ldrdeq	r0, [pc, #-24]	@ 87801ad6 <vsnprintf+0x17a>
87801aea:	016f023f 	cmneq	pc, pc, lsr r2	@ <UNPREDICTABLE>
87801aee:	0278016f 	rsbseq	r0, r8, #-1073741797	@ 0xc000001b
87801af2:	f042 0201 	orr.w	r2, r2, #1
87801af6:	4629      	mov	r1, r5
87801af8:	e768      	b.n	878019cc <vsnprintf+0x70>
87801afa:	f042 0210 	orr.w	r2, r2, #16
87801afe:	4629      	mov	r1, r5
87801b00:	e764      	b.n	878019cc <vsnprintf+0x70>
87801b02:	f042 0204 	orr.w	r2, r2, #4
87801b06:	4629      	mov	r1, r5
87801b08:	e760      	b.n	878019cc <vsnprintf+0x70>
87801b0a:	f042 0220 	orr.w	r2, r2, #32
87801b0e:	4629      	mov	r1, r5
87801b10:	e75c      	b.n	878019cc <vsnprintf+0x70>
87801b12:	f042 0208 	orr.w	r2, r2, #8
87801b16:	4629      	mov	r1, r5
87801b18:	e758      	b.n	878019cc <vsnprintf+0x70>
87801b1a:	f1a3 0068 	sub.w	r0, r3, #104	@ 0x68
87801b1e:	2111      	movs	r1, #17
87801b20:	f2c0 0104 	movt	r1, #4
87801b24:	b2c0      	uxtb	r0, r0
87801b26:	40c1      	lsrs	r1, r0
87801b28:	07c9      	lsls	r1, r1, #31
87801b2a:	d588      	bpl.n	87801a3e <vsnprintf+0xe2>
87801b2c:	1c69      	adds	r1, r5, #1
87801b2e:	2b6c      	cmp	r3, #108	@ 0x6c
87801b30:	f040 81f6 	bne.w	87801f20 <vsnprintf+0x5c4>
87801b34:	786b      	ldrb	r3, [r5, #1]
87801b36:	2b6c      	cmp	r3, #108	@ 0x6c
87801b38:	bf04      	itt	eq
87801b3a:	3502      	addeq	r5, #2
87801b3c:	234c      	moveq	r3, #76	@ 0x4c
87801b3e:	d05a      	beq.n	87801bf6 <vsnprintf+0x29a>
87801b40:	3b25      	subs	r3, #37	@ 0x25
87801b42:	2b53      	cmp	r3, #83	@ 0x53
87801b44:	f200 8127 	bhi.w	87801d96 <vsnprintf+0x43a>
87801b48:	e8df f013 	tbh	[pc, r3, lsl #1]
87801b4c:	01250149 			@ <UNDEFINED> instruction: 0x01250149
87801b50:	01250125 			@ <UNDEFINED> instruction: 0x01250125
87801b54:	01250125 			@ <UNDEFINED> instruction: 0x01250125
87801b58:	01250125 			@ <UNDEFINED> instruction: 0x01250125
87801b5c:	01250125 			@ <UNDEFINED> instruction: 0x01250125
87801b60:	01250125 			@ <UNDEFINED> instruction: 0x01250125
87801b64:	01250125 			@ <UNDEFINED> instruction: 0x01250125
87801b68:	01250125 			@ <UNDEFINED> instruction: 0x01250125
87801b6c:	01250125 			@ <UNDEFINED> instruction: 0x01250125
87801b70:	01250125 			@ <UNDEFINED> instruction: 0x01250125
87801b74:	01250125 			@ <UNDEFINED> instruction: 0x01250125
87801b78:	01250125 			@ <UNDEFINED> instruction: 0x01250125
87801b7c:	01250125 			@ <UNDEFINED> instruction: 0x01250125
87801b80:	01250125 			@ <UNDEFINED> instruction: 0x01250125
87801b84:	01250125 			@ <UNDEFINED> instruction: 0x01250125
87801b88:	01250125 			@ <UNDEFINED> instruction: 0x01250125
87801b8c:	01250125 			@ <UNDEFINED> instruction: 0x01250125
87801b90:	01250125 			@ <UNDEFINED> instruction: 0x01250125
87801b94:	01250125 			@ <UNDEFINED> instruction: 0x01250125
87801b98:	01250125 			@ <UNDEFINED> instruction: 0x01250125
87801b9c:	01250125 			@ <UNDEFINED> instruction: 0x01250125
87801ba0:	01250125 			@ <UNDEFINED> instruction: 0x01250125
87801ba4:	01250125 			@ <UNDEFINED> instruction: 0x01250125
87801ba8:	01250125 			@ <UNDEFINED> instruction: 0x01250125
87801bac:	01250125 			@ <UNDEFINED> instruction: 0x01250125
87801bb0:	00bf0125 	adcseq	r0, pc, r5, lsr #2
87801bb4:	01250125 			@ <UNDEFINED> instruction: 0x01250125
87801bb8:	01250125 			@ <UNDEFINED> instruction: 0x01250125
87801bbc:	01250125 			@ <UNDEFINED> instruction: 0x01250125
87801bc0:	01250125 			@ <UNDEFINED> instruction: 0x01250125
87801bc4:	01250125 			@ <UNDEFINED> instruction: 0x01250125
87801bc8:	01d30127 	bicseq	r0, r3, r7, lsr #2
87801bcc:	01250125 			@ <UNDEFINED> instruction: 0x01250125
87801bd0:	01250125 			@ <UNDEFINED> instruction: 0x01250125
87801bd4:	012501d3 	ldrdeq	r0, [r5, -r3]!
87801bd8:	01250125 			@ <UNDEFINED> instruction: 0x01250125
87801bdc:	01db0125 	bicseq	r0, fp, r5, lsr #2
87801be0:	01960209 	orrseq	r0, r6, r9, lsl #4
87801be4:	01250125 			@ <UNDEFINED> instruction: 0x01250125
87801be8:	01250156 			@ <UNDEFINED> instruction: 0x01250156
87801bec:	0125020c 			@ <UNDEFINED> instruction: 0x0125020c
87801bf0:	02060125 	andeq	r0, r6, #1073741833	@ 0x40000009
87801bf4:	3501      	adds	r5, #1
87801bf6:	7829      	ldrb	r1, [r5, #0]
87801bf8:	3925      	subs	r1, #37	@ 0x25
87801bfa:	2953      	cmp	r1, #83	@ 0x53
87801bfc:	f200 8094 	bhi.w	87801d28 <vsnprintf+0x3cc>
87801c00:	e8df f011 	tbh	[pc, r1, lsl #1]
87801c04:	009200ee 	addseq	r0, r2, lr, ror #1
87801c08:	00920092 	umullseq	r0, r2, r2, r0
87801c0c:	00920092 	umullseq	r0, r2, r2, r0
87801c10:	00920092 	umullseq	r0, r2, r2, r0
87801c14:	00920092 	umullseq	r0, r2, r2, r0
87801c18:	00920092 	umullseq	r0, r2, r2, r0
87801c1c:	00920092 	umullseq	r0, r2, r2, r0
87801c20:	00920092 	umullseq	r0, r2, r2, r0
87801c24:	00920092 	umullseq	r0, r2, r2, r0
87801c28:	00920092 	umullseq	r0, r2, r2, r0
87801c2c:	00920092 	umullseq	r0, r2, r2, r0
87801c30:	00920092 	umullseq	r0, r2, r2, r0
87801c34:	00920092 	umullseq	r0, r2, r2, r0
87801c38:	00920092 	umullseq	r0, r2, r2, r0
87801c3c:	00920092 	umullseq	r0, r2, r2, r0
87801c40:	00920092 	umullseq	r0, r2, r2, r0
87801c44:	00920092 	umullseq	r0, r2, r2, r0
87801c48:	00920092 	umullseq	r0, r2, r2, r0
87801c4c:	00920092 	umullseq	r0, r2, r2, r0
87801c50:	00920092 	umullseq	r0, r2, r2, r0
87801c54:	00920092 	umullseq	r0, r2, r2, r0
87801c58:	00920092 	umullseq	r0, r2, r2, r0
87801c5c:	00920092 	umullseq	r0, r2, r2, r0
87801c60:	00920092 	umullseq	r0, r2, r2, r0
87801c64:	00920092 	umullseq	r0, r2, r2, r0
87801c68:	016c0092 			@ <UNDEFINED> instruction: 0x016c0092
87801c6c:	00920092 	umullseq	r0, r2, r2, r0
87801c70:	00920092 	umullseq	r0, r2, r2, r0
87801c74:	00920092 	umullseq	r0, r2, r2, r0
87801c78:	00920092 	umullseq	r0, r2, r2, r0
87801c7c:	00920092 	umullseq	r0, r2, r2, r0
87801c80:	005400cc 	subseq	r0, r4, ip, asr #1
87801c84:	00920092 	umullseq	r0, r2, r2, r0
87801c88:	00920092 	umullseq	r0, r2, r2, r0
87801c8c:	00920054 	addseq	r0, r2, r4, asr r0
87801c90:	00920092 	umullseq	r0, r2, r2, r0
87801c94:	01550092 			@ <UNDEFINED> instruction: 0x01550092
87801c98:	013b01a8 	teqeq	fp, r8, lsr #3
87801c9c:	00920092 	umullseq	r0, r2, r2, r0
87801ca0:	009200fb 	ldrsheq	r0, [r2], fp
87801ca4:	00920056 	addseq	r0, r2, r6, asr r0
87801ca8:	01a60092 			@ <UNDEFINED> instruction: 0x01a60092
87801cac:	f042 0202 	orr.w	r2, r2, #2
87801cb0:	2b68      	cmp	r3, #104	@ 0x68
87801cb2:	f000 813a 	beq.w	87801f2a <vsnprintf+0x5ce>
87801cb6:	f04f 000a 	mov.w	r0, #10
87801cba:	dc0a      	bgt.n	87801cd2 <vsnprintf+0x376>
87801cbc:	2b4c      	cmp	r3, #76	@ 0x4c
87801cbe:	d108      	bne.n	87801cd2 <vsnprintf+0x376>
87801cc0:	f8d9 3004 	ldr.w	r3, [r9, #4]
87801cc4:	f859 1b08 	ldr.w	r1, [r9], #8
87801cc8:	e006      	b.n	87801cd8 <vsnprintf+0x37c>
87801cca:	f042 0240 	orr.w	r2, r2, #64	@ 0x40
87801cce:	2010      	movs	r0, #16
87801cd0:	460d      	mov	r5, r1
87801cd2:	f859 1b04 	ldr.w	r1, [r9], #4
87801cd6:	2300      	movs	r3, #0
87801cd8:	e9cd c202 	strd	ip, r2, [sp, #8]
87801cdc:	460a      	mov	r2, r1
87801cde:	e9cd 0600 	strd	r0, r6, [sp]
87801ce2:	4641      	mov	r1, r8
87801ce4:	4620      	mov	r0, r4
87801ce6:	f7ff faf7 	bl	878012d8 <number>
87801cea:	4604      	mov	r4, r0
87801cec:	7868      	ldrb	r0, [r5, #1]
87801cee:	1c69      	adds	r1, r5, #1
87801cf0:	2800      	cmp	r0, #0
87801cf2:	f47f ae4b 	bne.w	8780198c <vsnprintf+0x30>
87801cf6:	e653      	b.n	878019a0 <vsnprintf+0x44>
87801cf8:	f895 c001 	ldrb.w	ip, [r5, #1]
87801cfc:	f105 0e01 	add.w	lr, r5, #1
87801d00:	4663      	mov	r3, ip
87801d02:	f810 100c 	ldrb.w	r1, [r0, ip]
87801d06:	f011 0104 	ands.w	r1, r1, #4
87801d0a:	d135      	bne.n	87801d78 <vsnprintf+0x41c>
87801d0c:	2b2a      	cmp	r3, #42	@ 0x2a
87801d0e:	bf19      	ittee	ne
87801d10:	4675      	movne	r5, lr
87801d12:	468c      	movne	ip, r1
87801d14:	f859 1b04 	ldreq.w	r1, [r9], #4
87801d18:	78ab      	ldrbeq	r3, [r5, #2]
87801d1a:	bf04      	itt	eq
87801d1c:	3502      	addeq	r5, #2
87801d1e:	ea21 7ce1 	biceq.w	ip, r1, r1, asr #31
87801d22:	2b7a      	cmp	r3, #122	@ 0x7a
87801d24:	f67f ae83 	bls.w	87801a2e <vsnprintf+0xd2>
87801d28:	45a0      	cmp	r8, r4
87801d2a:	f104 0201 	add.w	r2, r4, #1
87801d2e:	bf24      	itt	cs
87801d30:	2325      	movcs	r3, #37	@ 0x25
87801d32:	7023      	strbcs	r3, [r4, #0]
87801d34:	782b      	ldrb	r3, [r5, #0]
87801d36:	2b00      	cmp	r3, #0
87801d38:	f000 80f4 	beq.w	87801f24 <vsnprintf+0x5c8>
87801d3c:	4590      	cmp	r8, r2
87801d3e:	bf28      	it	cs
87801d40:	7063      	strbcs	r3, [r4, #1]
87801d42:	1c69      	adds	r1, r5, #1
87801d44:	3402      	adds	r4, #2
87801d46:	7868      	ldrb	r0, [r5, #1]
87801d48:	2800      	cmp	r0, #0
87801d4a:	f47f ae1f 	bne.w	8780198c <vsnprintf+0x30>
87801d4e:	e627      	b.n	878019a0 <vsnprintf+0x44>
87801d50:	2600      	movs	r6, #0
87801d52:	f04f 0e0a 	mov.w	lr, #10
87801d56:	fb0e c606 	mla	r6, lr, r6, ip
87801d5a:	f815 cf01 	ldrb.w	ip, [r5, #1]!
87801d5e:	3e30      	subs	r6, #48	@ 0x30
87801d60:	4663      	mov	r3, ip
87801d62:	f810 100c 	ldrb.w	r1, [r0, ip]
87801d66:	074f      	lsls	r7, r1, #29
87801d68:	d4f5      	bmi.n	87801d56 <vsnprintf+0x3fa>
87801d6a:	e657      	b.n	87801a1c <vsnprintf+0xc0>
87801d6c:	465c      	mov	r4, fp
87801d6e:	2300      	movs	r3, #0
87801d70:	7023      	strb	r3, [r4, #0]
87801d72:	b009      	add	sp, #36	@ 0x24
87801d74:	e8bd 8ff0 	ldmia.w	sp!, {r4, r5, r6, r7, r8, r9, sl, fp, pc}
87801d78:	2100      	movs	r1, #0
87801d7a:	270a      	movs	r7, #10
87801d7c:	f81e 3f01 	ldrb.w	r3, [lr, #1]!
87801d80:	fb07 c101 	mla	r1, r7, r1, ip
87801d84:	469c      	mov	ip, r3
87801d86:	3930      	subs	r1, #48	@ 0x30
87801d88:	5cc5      	ldrb	r5, [r0, r3]
87801d8a:	076d      	lsls	r5, r5, #29
87801d8c:	d4f6      	bmi.n	87801d7c <vsnprintf+0x420>
87801d8e:	ea21 7ce1 	bic.w	ip, r1, r1, asr #31
87801d92:	4675      	mov	r5, lr
87801d94:	e648      	b.n	87801a28 <vsnprintf+0xcc>
87801d96:	460d      	mov	r5, r1
87801d98:	e7c6      	b.n	87801d28 <vsnprintf+0x3cc>
87801d9a:	460d      	mov	r5, r1
87801d9c:	f109 0c04 	add.w	ip, r9, #4
87801da0:	1c69      	adds	r1, r5, #1
87801da2:	06d3      	lsls	r3, r2, #27
87801da4:	f140 80f8 	bpl.w	87801f98 <vsnprintf+0x63c>
87801da8:	4544      	cmp	r4, r8
87801daa:	bf9c      	itt	ls
87801dac:	f8d9 3000 	ldrls.w	r3, [r9]
87801db0:	7023      	strbls	r3, [r4, #0]
87801db2:	2e01      	cmp	r6, #1
87801db4:	f104 0301 	add.w	r3, r4, #1
87801db8:	bfc4      	itt	gt
87801dba:	2220      	movgt	r2, #32
87801dbc:	19a4      	addgt	r4, r4, r6
87801dbe:	f340 8103 	ble.w	87801fc8 <vsnprintf+0x66c>
87801dc2:	4598      	cmp	r8, r3
87801dc4:	f103 0301 	add.w	r3, r3, #1
87801dc8:	bf28      	it	cs
87801dca:	f803 2c01 	strbcs.w	r2, [r3, #-1]
87801dce:	42a3      	cmp	r3, r4
87801dd0:	d1f7      	bne.n	87801dc2 <vsnprintf+0x466>
87801dd2:	7868      	ldrb	r0, [r5, #1]
87801dd4:	46e1      	mov	r9, ip
87801dd6:	2800      	cmp	r0, #0
87801dd8:	f47f add8 	bne.w	8780198c <vsnprintf+0x30>
87801ddc:	e5e0      	b.n	878019a0 <vsnprintf+0x44>
87801dde:	460d      	mov	r5, r1
87801de0:	45a0      	cmp	r8, r4
87801de2:	f105 0101 	add.w	r1, r5, #1
87801de6:	bf24      	itt	cs
87801de8:	2325      	movcs	r3, #37	@ 0x25
87801dea:	7023      	strbcs	r3, [r4, #0]
87801dec:	3401      	adds	r4, #1
87801dee:	7868      	ldrb	r0, [r5, #1]
87801df0:	2800      	cmp	r0, #0
87801df2:	f47f adcb 	bne.w	8780198c <vsnprintf+0x30>
87801df6:	e5d3      	b.n	878019a0 <vsnprintf+0x44>
87801df8:	460d      	mov	r5, r1
87801dfa:	464b      	mov	r3, r9
87801dfc:	f853 9b04 	ldr.w	r9, [r3], #4
87801e00:	f5b9 6f80 	cmp.w	r9, #1024	@ 0x400
87801e04:	d202      	bcs.n	87801e0c <vsnprintf+0x4b0>
87801e06:	f8df 91ec 	ldr.w	r9, [pc, #492]	@ 87801ff4 <vsnprintf+0x698>
87801e0a:	44f9      	add	r9, pc
87801e0c:	4661      	mov	r1, ip
87801e0e:	4648      	mov	r0, r9
87801e10:	e9cd 3206 	strd	r3, r2, [sp, #24]
87801e14:	f7ff f90e 	bl	87801034 <strnlen>
87801e18:	9a07      	ldr	r2, [sp, #28]
87801e1a:	9b06      	ldr	r3, [sp, #24]
87801e1c:	f012 0f10 	tst.w	r2, #16
87801e20:	f000 80a8 	beq.w	87801f74 <vsnprintf+0x618>
87801e24:	2800      	cmp	r0, #0
87801e26:	f340 80c6 	ble.w	87801fb6 <vsnprintf+0x65a>
87801e2a:	1822      	adds	r2, r4, r0
87801e2c:	45a0      	cmp	r8, r4
87801e2e:	f104 0401 	add.w	r4, r4, #1
87801e32:	f109 0901 	add.w	r9, r9, #1
87801e36:	bf24      	itt	cs
87801e38:	f819 1c01 	ldrbcs.w	r1, [r9, #-1]
87801e3c:	f804 1c01 	strbcs.w	r1, [r4, #-1]
87801e40:	42a2      	cmp	r2, r4
87801e42:	d1f3      	bne.n	87801e2c <vsnprintf+0x4d0>
87801e44:	4286      	cmp	r6, r0
87801e46:	f105 0101 	add.w	r1, r5, #1
87801e4a:	bfde      	ittt	le
87801e4c:	4614      	movle	r4, r2
87801e4e:	4699      	movle	r9, r3
87801e50:	7868      	ldrble	r0, [r5, #1]
87801e52:	f77f ada3 	ble.w	8780199c <vsnprintf+0x40>
87801e56:	1a30      	subs	r0, r6, r0
87801e58:	1814      	adds	r4, r2, r0
87801e5a:	2020      	movs	r0, #32
87801e5c:	4590      	cmp	r8, r2
87801e5e:	f102 0201 	add.w	r2, r2, #1
87801e62:	bf28      	it	cs
87801e64:	f802 0c01 	strbcs.w	r0, [r2, #-1]
87801e68:	4294      	cmp	r4, r2
87801e6a:	d1f7      	bne.n	87801e5c <vsnprintf+0x500>
87801e6c:	7868      	ldrb	r0, [r5, #1]
87801e6e:	4699      	mov	r9, r3
87801e70:	2800      	cmp	r0, #0
87801e72:	f47f ad8b 	bne.w	8780198c <vsnprintf+0x30>
87801e76:	e593      	b.n	878019a0 <vsnprintf+0x44>
87801e78:	460d      	mov	r5, r1
87801e7a:	4620      	mov	r0, r4
87801e7c:	f859 4b04 	ldr.w	r4, [r9], #4
87801e80:	1c77      	adds	r7, r6, #1
87801e82:	f04f 0e10 	mov.w	lr, #16
87801e86:	bf04      	itt	eq
87801e88:	f042 0201 	orreq.w	r2, r2, #1
87801e8c:	2608      	moveq	r6, #8
87801e8e:	4641      	mov	r1, r8
87801e90:	e9cd c202 	strd	ip, r2, [sp, #8]
87801e94:	2300      	movs	r3, #0
87801e96:	4622      	mov	r2, r4
87801e98:	e9cd e600 	strd	lr, r6, [sp]
87801e9c:	f7ff fa1c 	bl	878012d8 <number>
87801ea0:	4604      	mov	r4, r0
87801ea2:	7868      	ldrb	r0, [r5, #1]
87801ea4:	1c69      	adds	r1, r5, #1
87801ea6:	2800      	cmp	r0, #0
87801ea8:	f47f ad70 	bne.w	8780198c <vsnprintf+0x30>
87801eac:	e578      	b.n	878019a0 <vsnprintf+0x44>
87801eae:	f859 0b04 	ldr.w	r0, [r9], #4
87801eb2:	eba4 020b 	sub.w	r2, r4, fp
87801eb6:	1c69      	adds	r1, r5, #1
87801eb8:	6002      	str	r2, [r0, #0]
87801eba:	7868      	ldrb	r0, [r5, #1]
87801ebc:	2800      	cmp	r0, #0
87801ebe:	f47f ad65 	bne.w	8780198c <vsnprintf+0x30>
87801ec2:	e56d      	b.n	878019a0 <vsnprintf+0x44>
87801ec4:	f042 0202 	orr.w	r2, r2, #2
87801ec8:	f859 1b04 	ldr.w	r1, [r9], #4
87801ecc:	0793      	lsls	r3, r2, #30
87801ece:	bf44      	itt	mi
87801ed0:	200a      	movmi	r0, #10
87801ed2:	17cb      	asrmi	r3, r1, #31
87801ed4:	f53f af00 	bmi.w	87801cd8 <vsnprintf+0x37c>
87801ed8:	200a      	movs	r0, #10
87801eda:	e031      	b.n	87801f40 <vsnprintf+0x5e4>
87801edc:	f042 0240 	orr.w	r2, r2, #64	@ 0x40
87801ee0:	2010      	movs	r0, #16
87801ee2:	2b68      	cmp	r3, #104	@ 0x68
87801ee4:	f47f aee9 	bne.w	87801cba <vsnprintf+0x35e>
87801ee8:	f859 1b04 	ldr.w	r1, [r9], #4
87801eec:	b289      	uxth	r1, r1
87801eee:	2300      	movs	r3, #0
87801ef0:	e6f2      	b.n	87801cd8 <vsnprintf+0x37c>
87801ef2:	460d      	mov	r5, r1
87801ef4:	f859 1b04 	ldr.w	r1, [r9], #4
87801ef8:	f042 0202 	orr.w	r2, r2, #2
87801efc:	200a      	movs	r0, #10
87801efe:	17cb      	asrs	r3, r1, #31
87801f00:	e6ea      	b.n	87801cd8 <vsnprintf+0x37c>
87801f02:	f859 2b04 	ldr.w	r2, [r9], #4
87801f06:	eba4 030b 	sub.w	r3, r4, fp
87801f0a:	1ca9      	adds	r1, r5, #2
87801f0c:	6013      	str	r3, [r2, #0]
87801f0e:	78a8      	ldrb	r0, [r5, #2]
87801f10:	2800      	cmp	r0, #0
87801f12:	f47f ad3b 	bne.w	8780198c <vsnprintf+0x30>
87801f16:	e543      	b.n	878019a0 <vsnprintf+0x44>
87801f18:	2000      	movs	r0, #0
87801f1a:	b009      	add	sp, #36	@ 0x24
87801f1c:	e8bd 8ff0 	ldmia.w	sp!, {r4, r5, r6, r7, r8, r9, sl, fp, pc}
87801f20:	460d      	mov	r5, r1
87801f22:	e668      	b.n	87801bf6 <vsnprintf+0x29a>
87801f24:	9f05      	ldr	r7, [sp, #20]
87801f26:	4614      	mov	r4, r2
87801f28:	e53b      	b.n	878019a2 <vsnprintf+0x46>
87801f2a:	f859 1b04 	ldr.w	r1, [r9], #4
87801f2e:	0790      	lsls	r0, r2, #30
87801f30:	d551      	bpl.n	87801fd6 <vsnprintf+0x67a>
87801f32:	b209      	sxth	r1, r1
87801f34:	200a      	movs	r0, #10
87801f36:	17cb      	asrs	r3, r1, #31
87801f38:	e6ce      	b.n	87801cd8 <vsnprintf+0x37c>
87801f3a:	2010      	movs	r0, #16
87801f3c:	f859 1b04 	ldr.w	r1, [r9], #4
87801f40:	2300      	movs	r3, #0
87801f42:	e6c9      	b.n	87801cd8 <vsnprintf+0x37c>
87801f44:	2008      	movs	r0, #8
87801f46:	e7f9      	b.n	87801f3c <vsnprintf+0x5e0>
87801f48:	f042 0240 	orr.w	r2, r2, #64	@ 0x40
87801f4c:	2010      	movs	r0, #16
87801f4e:	e7f5      	b.n	87801f3c <vsnprintf+0x5e0>
87801f50:	2010      	movs	r0, #16
87801f52:	e7c6      	b.n	87801ee2 <vsnprintf+0x586>
87801f54:	2008      	movs	r0, #8
87801f56:	e7c4      	b.n	87801ee2 <vsnprintf+0x586>
87801f58:	2010      	movs	r0, #16
87801f5a:	460d      	mov	r5, r1
87801f5c:	e6b9      	b.n	87801cd2 <vsnprintf+0x376>
87801f5e:	2008      	movs	r0, #8
87801f60:	460d      	mov	r5, r1
87801f62:	e6b6      	b.n	87801cd2 <vsnprintf+0x376>
87801f64:	460d      	mov	r5, r1
87801f66:	2300      	movs	r3, #0
87801f68:	f859 1b04 	ldr.w	r1, [r9], #4
87801f6c:	200a      	movs	r0, #10
87801f6e:	e6b3      	b.n	87801cd8 <vsnprintf+0x37c>
87801f70:	465c      	mov	r4, fp
87801f72:	e518      	b.n	878019a6 <vsnprintf+0x4a>
87801f74:	f106 3cff 	add.w	ip, r6, #4294967295	@ 0xffffffff
87801f78:	4286      	cmp	r6, r0
87801f7a:	dd2e      	ble.n	87801fda <vsnprintf+0x67e>
87801f7c:	1a32      	subs	r2, r6, r0
87801f7e:	2120      	movs	r1, #32
87801f80:	4422      	add	r2, r4
87801f82:	45a0      	cmp	r8, r4
87801f84:	f104 0401 	add.w	r4, r4, #1
87801f88:	bf28      	it	cs
87801f8a:	f804 1c01 	strbcs.w	r1, [r4, #-1]
87801f8e:	42a2      	cmp	r2, r4
87801f90:	d1f7      	bne.n	87801f82 <vsnprintf+0x626>
87801f92:	1b86      	subs	r6, r0, r6
87801f94:	4466      	add	r6, ip
87801f96:	e745      	b.n	87801e24 <vsnprintf+0x4c8>
87801f98:	2e01      	cmp	r6, #1
87801f9a:	dd0e      	ble.n	87801fba <vsnprintf+0x65e>
87801f9c:	1e73      	subs	r3, r6, #1
87801f9e:	2220      	movs	r2, #32
87801fa0:	4423      	add	r3, r4
87801fa2:	4544      	cmp	r4, r8
87801fa4:	f104 0401 	add.w	r4, r4, #1
87801fa8:	bf98      	it	ls
87801faa:	f804 2c01 	strbls.w	r2, [r4, #-1]
87801fae:	42a3      	cmp	r3, r4
87801fb0:	d1f7      	bne.n	87801fa2 <vsnprintf+0x646>
87801fb2:	2600      	movs	r6, #0
87801fb4:	e6f8      	b.n	87801da8 <vsnprintf+0x44c>
87801fb6:	4622      	mov	r2, r4
87801fb8:	e744      	b.n	87801e44 <vsnprintf+0x4e8>
87801fba:	45a0      	cmp	r8, r4
87801fbc:	d30f      	bcc.n	87801fde <vsnprintf+0x682>
87801fbe:	4623      	mov	r3, r4
87801fc0:	f8d9 2000 	ldr.w	r2, [r9]
87801fc4:	f803 2b01 	strb.w	r2, [r3], #1
87801fc8:	7868      	ldrb	r0, [r5, #1]
87801fca:	461c      	mov	r4, r3
87801fcc:	46e1      	mov	r9, ip
87801fce:	2800      	cmp	r0, #0
87801fd0:	f47f acdc 	bne.w	8780198c <vsnprintf+0x30>
87801fd4:	e4e4      	b.n	878019a0 <vsnprintf+0x44>
87801fd6:	200a      	movs	r0, #10
87801fd8:	e788      	b.n	87801eec <vsnprintf+0x590>
87801fda:	4666      	mov	r6, ip
87801fdc:	e722      	b.n	87801e24 <vsnprintf+0x4c8>
87801fde:	7868      	ldrb	r0, [r5, #1]
87801fe0:	3401      	adds	r4, #1
87801fe2:	46e1      	mov	r9, ip
87801fe4:	2800      	cmp	r0, #0
87801fe6:	f47f acd1 	bne.w	8780198c <vsnprintf+0x30>
87801fea:	e4d9      	b.n	878019a0 <vsnprintf+0x44>
87801fec:	ffffe694 			@ <UNDEFINED> instruction: 0xffffe694
87801ff0:	00000194 	muleq	r0, r4, r1
87801ff4:	00000f96 	muleq	r0, r6, pc	@ <UNPREDICTABLE>

87801ff8 <vscnprintf>:
87801ff8:	b510      	push	{r4, lr}
87801ffa:	460c      	mov	r4, r1
87801ffc:	f7ff fcae 	bl	8780195c <vsnprintf>
87802000:	42a0      	cmp	r0, r4
87802002:	bf28      	it	cs
87802004:	f104 30ff 	addcs.w	r0, r4, #4294967295	@ 0xffffffff
87802008:	bd10      	pop	{r4, pc}
8780200a:	bf00      	nop

8780200c <snprintf>:
8780200c:	b40c      	push	{r2, r3}
8780200e:	b508      	push	{r3, lr}
87802010:	ab02      	add	r3, sp, #8
87802012:	f853 2b04 	ldr.w	r2, [r3], #4
87802016:	f7ff fca1 	bl	8780195c <vsnprintf>
8780201a:	e8bd 4008 	ldmia.w	sp!, {r3, lr}
8780201e:	b002      	add	sp, #8
87802020:	4770      	bx	lr
87802022:	bf00      	nop

87802024 <scnprintf>:
87802024:	b40c      	push	{r2, r3}
87802026:	b510      	push	{r4, lr}
87802028:	460c      	mov	r4, r1
8780202a:	ab02      	add	r3, sp, #8
8780202c:	f853 2b04 	ldr.w	r2, [r3], #4
87802030:	f7ff fc94 	bl	8780195c <vsnprintf>
87802034:	42a0      	cmp	r0, r4
87802036:	bf28      	it	cs
87802038:	f104 30ff 	addcs.w	r0, r4, #4294967295	@ 0xffffffff
8780203c:	e8bd 4010 	ldmia.w	sp!, {r4, lr}
87802040:	b002      	add	sp, #8
87802042:	4770      	bx	lr

87802044 <vsprintf>:
87802044:	4613      	mov	r3, r2
87802046:	460a      	mov	r2, r1
87802048:	f06f 4100 	mvn.w	r1, #2147483648	@ 0x80000000
8780204c:	f7ff bc86 	b.w	8780195c <vsnprintf>

87802050 <sprintf>:
87802050:	b40e      	push	{r1, r2, r3}
87802052:	f06f 4100 	mvn.w	r1, #2147483648	@ 0x80000000
87802056:	b500      	push	{lr}
87802058:	ab01      	add	r3, sp, #4
8780205a:	f853 2b04 	ldr.w	r2, [r3], #4
8780205e:	f7ff fc7d 	bl	8780195c <vsnprintf>
87802062:	f85d eb04 	ldr.w	lr, [sp], #4
87802066:	b003      	add	sp, #12
87802068:	4770      	bx	lr
8780206a:	bf00      	nop

8780206c <vsscanf>:
8780206c:	e92d 4ff0 	stmdb	sp!, {r4, r5, r6, r7, r8, r9, sl, fp, lr}
87802070:	f8df 74b0 	ldr.w	r7, [pc, #1200]	@ 87802524 <vsscanf+0x4b8>
87802074:	780c      	ldrb	r4, [r1, #0]
87802076:	b085      	sub	sp, #20
87802078:	447f      	add	r7, pc
8780207a:	46a0      	mov	r8, r4
8780207c:	b1ec      	cbz	r4, 878020ba <vsscanf+0x4e>
8780207e:	460d      	mov	r5, r1
87802080:	4606      	mov	r6, r0
87802082:	4692      	mov	sl, r2
87802084:	f04f 0800 	mov.w	r8, #0
87802088:	f890 c000 	ldrb.w	ip, [r0]
8780208c:	f1bc 0f00 	cmp.w	ip, #0
87802090:	d013      	beq.n	878020ba <vsscanf+0x4e>
87802092:	f8df 3494 	ldr.w	r3, [pc, #1172]	@ 87802528 <vsscanf+0x4bc>
87802096:	782a      	ldrb	r2, [r5, #0]
87802098:	58fb      	ldr	r3, [r7, r3]
8780209a:	5d19      	ldrb	r1, [r3, r4]
8780209c:	068c      	lsls	r4, r1, #26
8780209e:	d412      	bmi.n	878020c6 <vsscanf+0x5a>
878020a0:	2a25      	cmp	r2, #37	@ 0x25
878020a2:	bf18      	it	ne
878020a4:	2a00      	cmpne	r2, #0
878020a6:	bf14      	ite	ne
878020a8:	f04f 0b01 	movne.w	fp, #1
878020ac:	f04f 0b00 	moveq.w	fp, #0
878020b0:	d016      	beq.n	878020e0 <vsscanf+0x74>
878020b2:	7803      	ldrb	r3, [r0, #0]
878020b4:	4293      	cmp	r3, r2
878020b6:	f000 8113 	beq.w	878022e0 <vsscanf+0x274>
878020ba:	4640      	mov	r0, r8
878020bc:	b005      	add	sp, #20
878020be:	e8bd 8ff0 	ldmia.w	sp!, {r4, r5, r6, r7, r8, r9, sl, fp, pc}
878020c2:	f815 2f01 	ldrb.w	r2, [r5, #1]!
878020c6:	5c99      	ldrb	r1, [r3, r2]
878020c8:	0689      	lsls	r1, r1, #26
878020ca:	d4fa      	bmi.n	878020c2 <vsscanf+0x56>
878020cc:	f813 100c 	ldrb.w	r1, [r3, ip]
878020d0:	068c      	lsls	r4, r1, #26
878020d2:	d5e5      	bpl.n	878020a0 <vsscanf+0x34>
878020d4:	f810 1f01 	ldrb.w	r1, [r0, #1]!
878020d8:	5c59      	ldrb	r1, [r3, r1]
878020da:	0689      	lsls	r1, r1, #26
878020dc:	d4fa      	bmi.n	878020d4 <vsscanf+0x68>
878020de:	e7df      	b.n	878020a0 <vsscanf+0x34>
878020e0:	2a00      	cmp	r2, #0
878020e2:	d0ea      	beq.n	878020ba <vsscanf+0x4e>
878020e4:	786c      	ldrb	r4, [r5, #1]
878020e6:	f105 0e01 	add.w	lr, r5, #1
878020ea:	4622      	mov	r2, r4
878020ec:	2c2a      	cmp	r4, #42	@ 0x2a
878020ee:	5d19      	ldrb	r1, [r3, r4]
878020f0:	f000 810f 	beq.w	87802312 <vsscanf+0x2a6>
878020f4:	074d      	lsls	r5, r1, #29
878020f6:	bf58      	it	pl
878020f8:	f04f 3cff 	movpl.w	ip, #4294967295	@ 0xffffffff
878020fc:	f100 808e 	bmi.w	8780221c <vsscanf+0x1b0>
87802100:	2c7a      	cmp	r4, #122	@ 0x7a
87802102:	d8da      	bhi.n	878020ba <vsscanf+0x4e>
87802104:	2c67      	cmp	r4, #103	@ 0x67
87802106:	d863      	bhi.n	878021d0 <vsscanf+0x164>
87802108:	2c4c      	cmp	r4, #76	@ 0x4c
8780210a:	f000 80f0 	beq.w	878022ee <vsscanf+0x282>
8780210e:	2c5a      	cmp	r4, #90	@ 0x5a
87802110:	f000 8091 	beq.w	87802236 <vsscanf+0x1ca>
87802114:	4622      	mov	r2, r4
87802116:	46f1      	mov	r9, lr
87802118:	f04f 34ff 	mov.w	r4, #4294967295	@ 0xffffffff
8780211c:	2a00      	cmp	r2, #0
8780211e:	d0cc      	beq.n	878020ba <vsscanf+0x4e>
87802120:	7801      	ldrb	r1, [r0, #0]
87802122:	2900      	cmp	r1, #0
87802124:	d0c9      	beq.n	878020ba <vsscanf+0x4e>
87802126:	f109 0501 	add.w	r5, r9, #1
8780212a:	2a25      	cmp	r2, #37	@ 0x25
8780212c:	f000 80e7 	beq.w	878022fe <vsscanf+0x292>
87802130:	3a58      	subs	r2, #88	@ 0x58
87802132:	fa5f fe82 	uxtb.w	lr, r2
87802136:	f1be 0f20 	cmp.w	lr, #32
8780213a:	d8be      	bhi.n	878020ba <vsscanf+0x4e>
8780213c:	2a20      	cmp	r2, #32
8780213e:	d8bc      	bhi.n	878020ba <vsscanf+0x4e>
87802140:	f20f 0e08 	addw	lr, pc, #8
87802144:	f85e 2022 	ldr.w	r2, [lr, r2, lsl #2]
87802148:	4496      	add	lr, r2
8780214a:	4770      	bx	lr
8780214c:	00000205 	andeq	r0, r0, r5, lsl #4
87802150:	ffffff6f 			@ <UNDEFINED> instruction: 0xffffff6f
87802154:	ffffff6f 			@ <UNDEFINED> instruction: 0xffffff6f
87802158:	ffffff6f 			@ <UNDEFINED> instruction: 0xffffff6f
8780215c:	ffffff6f 			@ <UNDEFINED> instruction: 0xffffff6f
87802160:	ffffff6f 			@ <UNDEFINED> instruction: 0xffffff6f
87802164:	ffffff6f 			@ <UNDEFINED> instruction: 0xffffff6f
87802168:	ffffff6f 			@ <UNDEFINED> instruction: 0xffffff6f
8780216c:	ffffff6f 			@ <UNDEFINED> instruction: 0xffffff6f
87802170:	ffffff6f 			@ <UNDEFINED> instruction: 0xffffff6f
87802174:	ffffff6f 			@ <UNDEFINED> instruction: 0xffffff6f
87802178:	0000015b 	andeq	r0, r0, fp, asr r1
8780217c:	000002c3 	andeq	r0, r0, r3, asr #5
87802180:	ffffff6f 			@ <UNDEFINED> instruction: 0xffffff6f
87802184:	ffffff6f 			@ <UNDEFINED> instruction: 0xffffff6f
87802188:	ffffff6f 			@ <UNDEFINED> instruction: 0xffffff6f
8780218c:	ffffff6f 			@ <UNDEFINED> instruction: 0xffffff6f
87802190:	000002ed 	andeq	r0, r0, sp, ror #5
87802194:	ffffff6f 			@ <UNDEFINED> instruction: 0xffffff6f
87802198:	ffffff6f 			@ <UNDEFINED> instruction: 0xffffff6f
8780219c:	ffffff6f 			@ <UNDEFINED> instruction: 0xffffff6f
878021a0:	ffffff6f 			@ <UNDEFINED> instruction: 0xffffff6f
878021a4:	00000147 	andeq	r0, r0, r7, asr #2
878021a8:	000002f1 	strdeq	r0, [r0], -r1
878021ac:	ffffff6f 			@ <UNDEFINED> instruction: 0xffffff6f
878021b0:	ffffff6f 			@ <UNDEFINED> instruction: 0xffffff6f
878021b4:	ffffff6f 			@ <UNDEFINED> instruction: 0xffffff6f
878021b8:	000000fb 	strdeq	r0, [r0], -fp
878021bc:	ffffff6f 			@ <UNDEFINED> instruction: 0xffffff6f
878021c0:	000002e9 	andeq	r0, r0, r9, ror #5
878021c4:	ffffff6f 			@ <UNDEFINED> instruction: 0xffffff6f
878021c8:	ffffff6f 			@ <UNDEFINED> instruction: 0xffffff6f
878021cc:	00000205 	andeq	r0, r0, r5, lsl #4
878021d0:	f1a4 0168 	sub.w	r1, r4, #104	@ 0x68
878021d4:	2211      	movs	r2, #17
878021d6:	f2c0 0204 	movt	r2, #4
878021da:	b2c9      	uxtb	r1, r1
878021dc:	40ca      	lsrs	r2, r1
878021de:	07d5      	lsls	r5, r2, #31
878021e0:	d40a      	bmi.n	878021f8 <vsscanf+0x18c>
878021e2:	7801      	ldrb	r1, [r0, #0]
878021e4:	2900      	cmp	r1, #0
878021e6:	f43f af68 	beq.w	878020ba <vsscanf+0x4e>
878021ea:	4622      	mov	r2, r4
878021ec:	f10e 0501 	add.w	r5, lr, #1
878021f0:	46f1      	mov	r9, lr
878021f2:	f04f 34ff 	mov.w	r4, #4294967295	@ 0xffffffff
878021f6:	e79b      	b.n	87802130 <vsscanf+0xc4>
878021f8:	f89e 2001 	ldrb.w	r2, [lr, #1]
878021fc:	f10e 0901 	add.w	r9, lr, #1
87802200:	42a2      	cmp	r2, r4
87802202:	d18b      	bne.n	8780211c <vsscanf+0xb0>
87802204:	2c68      	cmp	r4, #104	@ 0x68
87802206:	f000 8165 	beq.w	878024d4 <vsscanf+0x468>
8780220a:	2c6c      	cmp	r4, #108	@ 0x6c
8780220c:	f040 8182 	bne.w	87802514 <vsscanf+0x4a8>
87802210:	f89e 2002 	ldrb.w	r2, [lr, #2]
87802214:	f10e 0902 	add.w	r9, lr, #2
87802218:	244c      	movs	r4, #76	@ 0x4c
8780221a:	e77f      	b.n	8780211c <vsscanf+0xb0>
8780221c:	46dc      	mov	ip, fp
8780221e:	250a      	movs	r5, #10
87802220:	fb05 220c 	mla	r2, r5, ip, r2
87802224:	f1a2 0c30 	sub.w	ip, r2, #48	@ 0x30
87802228:	f81e 2f01 	ldrb.w	r2, [lr, #1]!
8780222c:	4614      	mov	r4, r2
8780222e:	5c99      	ldrb	r1, [r3, r2]
87802230:	0749      	lsls	r1, r1, #29
87802232:	d4f5      	bmi.n	87802220 <vsscanf+0x1b4>
87802234:	e764      	b.n	87802100 <vsscanf+0x94>
87802236:	f89e 2001 	ldrb.w	r2, [lr, #1]
8780223a:	f10e 0901 	add.w	r9, lr, #1
8780223e:	2a5a      	cmp	r2, #90	@ 0x5a
87802240:	f47f af6c 	bne.w	8780211c <vsscanf+0xb0>
87802244:	e76c      	b.n	87802120 <vsscanf+0xb4>
87802246:	5c5c      	ldrb	r4, [r3, r1]
87802248:	f1bc 3fff 	cmp.w	ip, #4294967295	@ 0xffffffff
8780224c:	bf08      	it	eq
8780224e:	f06f 4c00 	mvneq.w	ip, #2147483648	@ 0x80000000
87802252:	f85a 2b04 	ldr.w	r2, [sl], #4
87802256:	06a4      	lsls	r4, r4, #26
87802258:	d505      	bpl.n	87802266 <vsscanf+0x1fa>
8780225a:	f810 1f01 	ldrb.w	r1, [r0, #1]!
8780225e:	5c5c      	ldrb	r4, [r3, r1]
87802260:	06a4      	lsls	r4, r4, #26
87802262:	d4fa      	bmi.n	8780225a <vsscanf+0x1ee>
87802264:	b159      	cbz	r1, 8780227e <vsscanf+0x212>
87802266:	4494      	add	ip, r2
87802268:	e006      	b.n	87802278 <vsscanf+0x20c>
8780226a:	4562      	cmp	r2, ip
8780226c:	d007      	beq.n	8780227e <vsscanf+0x212>
8780226e:	f802 1b01 	strb.w	r1, [r2], #1
87802272:	f810 1f01 	ldrb.w	r1, [r0, #1]!
87802276:	b111      	cbz	r1, 8780227e <vsscanf+0x212>
87802278:	5c5c      	ldrb	r4, [r3, r1]
8780227a:	06a4      	lsls	r4, r4, #26
8780227c:	d5f5      	bpl.n	8780226a <vsscanf+0x1fe>
8780227e:	2300      	movs	r3, #0
87802280:	7013      	strb	r3, [r2, #0]
87802282:	f108 0801 	add.w	r8, r8, #1
87802286:	f899 4001 	ldrb.w	r4, [r9, #1]
8780228a:	2c00      	cmp	r4, #0
8780228c:	f47f aefc 	bne.w	87802088 <vsscanf+0x1c>
87802290:	e713      	b.n	878020ba <vsscanf+0x4e>
87802292:	f85a 2b04 	ldr.w	r2, [sl], #4
87802296:	1b83      	subs	r3, r0, r6
87802298:	6013      	str	r3, [r2, #0]
8780229a:	f899 4001 	ldrb.w	r4, [r9, #1]
8780229e:	2c00      	cmp	r4, #0
878022a0:	f47f aef2 	bne.w	87802088 <vsscanf+0x1c>
878022a4:	e709      	b.n	878020ba <vsscanf+0x4e>
878022a6:	f85a 1b04 	ldr.w	r1, [sl], #4
878022aa:	f1bc 3fff 	cmp.w	ip, #4294967295	@ 0xffffffff
878022ae:	bf08      	it	eq
878022b0:	f04f 0c01 	moveq.w	ip, #1
878022b4:	4603      	mov	r3, r0
878022b6:	3901      	subs	r1, #1
878022b8:	e001      	b.n	878022be <vsscanf+0x252>
878022ba:	781a      	ldrb	r2, [r3, #0]
878022bc:	b13a      	cbz	r2, 878022ce <vsscanf+0x262>
878022be:	f813 2b01 	ldrb.w	r2, [r3], #1
878022c2:	f801 2f01 	strb.w	r2, [r1, #1]!
878022c6:	1ac2      	subs	r2, r0, r3
878022c8:	4462      	add	r2, ip
878022ca:	2a00      	cmp	r2, #0
878022cc:	dcf5      	bgt.n	878022ba <vsscanf+0x24e>
878022ce:	f899 4001 	ldrb.w	r4, [r9, #1]
878022d2:	f108 0801 	add.w	r8, r8, #1
878022d6:	4618      	mov	r0, r3
878022d8:	2c00      	cmp	r4, #0
878022da:	f47f aed5 	bne.w	87802088 <vsscanf+0x1c>
878022de:	e6ec      	b.n	878020ba <vsscanf+0x4e>
878022e0:	786c      	ldrb	r4, [r5, #1]
878022e2:	3001      	adds	r0, #1
878022e4:	3501      	adds	r5, #1
878022e6:	2c00      	cmp	r4, #0
878022e8:	f47f aece 	bne.w	87802088 <vsscanf+0x1c>
878022ec:	e6e5      	b.n	878020ba <vsscanf+0x4e>
878022ee:	f89e 2001 	ldrb.w	r2, [lr, #1]
878022f2:	f10e 0901 	add.w	r9, lr, #1
878022f6:	2a4c      	cmp	r2, #76	@ 0x4c
878022f8:	f47f af10 	bne.w	8780211c <vsscanf+0xb0>
878022fc:	e710      	b.n	87802120 <vsscanf+0xb4>
878022fe:	2925      	cmp	r1, #37	@ 0x25
87802300:	f47f aedb 	bne.w	878020ba <vsscanf+0x4e>
87802304:	f899 4001 	ldrb.w	r4, [r9, #1]
87802308:	3001      	adds	r0, #1
8780230a:	2c00      	cmp	r4, #0
8780230c:	f47f aebc 	bne.w	87802088 <vsscanf+0x1c>
87802310:	e6d3      	b.n	878020ba <vsscanf+0x4e>
87802312:	4675      	mov	r5, lr
87802314:	068a      	lsls	r2, r1, #26
87802316:	d40a      	bmi.n	8780232e <vsscanf+0x2c2>
87802318:	f815 4f01 	ldrb.w	r4, [r5, #1]!
8780231c:	1e21      	subs	r1, r4, #0
8780231e:	bf18      	it	ne
87802320:	2101      	movne	r1, #1
87802322:	5d1a      	ldrb	r2, [r3, r4]
87802324:	f082 0220 	eor.w	r2, r2, #32
87802328:	ea11 1152 	ands.w	r1, r1, r2, lsr #5
8780232c:	d1f4      	bne.n	87802318 <vsscanf+0x2ac>
8780232e:	7802      	ldrb	r2, [r0, #0]
87802330:	e001      	b.n	87802336 <vsscanf+0x2ca>
87802332:	f810 2f01 	ldrb.w	r2, [r0, #1]!
87802336:	1e11      	subs	r1, r2, #0
87802338:	5c9a      	ldrb	r2, [r3, r2]
8780233a:	bf18      	it	ne
8780233c:	2101      	movne	r1, #1
8780233e:	f082 0220 	eor.w	r2, r2, #32
87802342:	ea11 1152 	ands.w	r1, r1, r2, lsr #5
87802346:	d1f4      	bne.n	87802332 <vsscanf+0x2c6>
87802348:	2c00      	cmp	r4, #0
8780234a:	f47f ae9d 	bne.w	87802088 <vsscanf+0x1c>
8780234e:	e6b4      	b.n	878020ba <vsscanf+0x4e>
87802350:	2210      	movs	r2, #16
87802352:	f813 e001 	ldrb.w	lr, [r3, r1]
87802356:	f01e 0c20 	ands.w	ip, lr, #32
8780235a:	bf1c      	itt	ne
8780235c:	2100      	movne	r1, #0
8780235e:	9101      	strne	r1, [sp, #4]
87802360:	f000 80af 	beq.w	878024c2 <vsscanf+0x456>
87802364:	f810 1f01 	ldrb.w	r1, [r0, #1]!
87802368:	f813 c001 	ldrb.w	ip, [r3, r1]
8780236c:	f01c 0f20 	tst.w	ip, #32
87802370:	d1f8      	bne.n	87802364 <vsscanf+0x2f8>
87802372:	f1a1 0c2d 	sub.w	ip, r1, #45	@ 0x2d
87802376:	fabc fc8c 	clz	ip, ip
8780237a:	ea4f 1c5c 	mov.w	ip, ip, lsr #5
8780237e:	ea1c 0f0b 	tst.w	ip, fp
87802382:	d002      	beq.n	8780238a <vsscanf+0x31e>
87802384:	7841      	ldrb	r1, [r0, #1]
87802386:	f04f 0c01 	mov.w	ip, #1
8780238a:	2900      	cmp	r1, #0
8780238c:	f43f ae95 	beq.w	878020ba <vsscanf+0x4e>
87802390:	f813 e001 	ldrb.w	lr, [r3, r1]
87802394:	2a10      	cmp	r2, #16
87802396:	d076      	beq.n	87802486 <vsscanf+0x41a>
87802398:	f00e 0304 	and.w	r3, lr, #4
8780239c:	2a0a      	cmp	r2, #10
8780239e:	d176      	bne.n	8780248e <vsscanf+0x422>
878023a0:	2b00      	cmp	r3, #0
878023a2:	f43f ae8a 	beq.w	878020ba <vsscanf+0x4e>
878023a6:	f85a bb04 	ldr.w	fp, [sl], #4
878023aa:	2c6c      	cmp	r4, #108	@ 0x6c
878023ac:	dc1e      	bgt.n	878023ec <vsscanf+0x380>
878023ae:	2c47      	cmp	r4, #71	@ 0x47
878023b0:	dd17      	ble.n	878023e2 <vsscanf+0x376>
878023b2:	3c48      	subs	r4, #72	@ 0x48
878023b4:	2c24      	cmp	r4, #36	@ 0x24
878023b6:	d814      	bhi.n	878023e2 <vsscanf+0x376>
878023b8:	e8df f004 	tbb	[pc, r4]
878023bc:	1313135a 	tstne	r3, #1744830465	@ 0x68000001
878023c0:	1313134d 	tstne	r3, #872415233	@ 0x34000001
878023c4:	13131313 	tstne	r3, #1275068416	@ 0x4c000000
878023c8:	13131313 	tstne	r3, #1275068416	@ 0x4c000000
878023cc:	13181313 	tstne	r8, #1275068416	@ 0x4c000000
878023d0:	13131313 	tstne	r3, #1275068416	@ 0x4c000000
878023d4:	13131313 	tstne	r3, #1275068416	@ 0x4c000000
878023d8:	13131313 	tstne	r3, #1275068416	@ 0x4c000000
878023dc:	13131342 	tstne	r3, #134217729	@ 0x8000001
878023e0:	9b010013 	blls	87842434 <__bss_end+0x3e86c>
878023e4:	b113      	cbz	r3, 878023ec <vsscanf+0x380>
878023e6:	f1bc 0f00 	cmp.w	ip, #0
878023ea:	d179      	bne.n	878024e0 <vsscanf+0x474>
878023ec:	a903      	add	r1, sp, #12
878023ee:	f7ff f995 	bl	8780171c <simple_strtoul>
878023f2:	f8cb 0000 	str.w	r0, [fp]
878023f6:	9803      	ldr	r0, [sp, #12]
878023f8:	f108 0801 	add.w	r8, r8, #1
878023fc:	2800      	cmp	r0, #0
878023fe:	f43f ae5c 	beq.w	878020ba <vsscanf+0x4e>
87802402:	f899 4001 	ldrb.w	r4, [r9, #1]
87802406:	2c00      	cmp	r4, #0
87802408:	f47f ae3e 	bne.w	87802088 <vsscanf+0x1c>
8780240c:	e655      	b.n	878020ba <vsscanf+0x4e>
8780240e:	220a      	movs	r2, #10
87802410:	f813 e001 	ldrb.w	lr, [r3, r1]
87802414:	f01e 0c20 	ands.w	ip, lr, #32
87802418:	bf1c      	itt	ne
8780241a:	f04f 0b01 	movne.w	fp, #1
8780241e:	f8cd b004 	strne.w	fp, [sp, #4]
87802422:	d19f      	bne.n	87802364 <vsscanf+0x2f8>
87802424:	292d      	cmp	r1, #45	@ 0x2d
87802426:	bf1c      	itt	ne
87802428:	2301      	movne	r3, #1
8780242a:	9301      	strne	r3, [sp, #4]
8780242c:	d1b4      	bne.n	87802398 <vsscanf+0x32c>
8780242e:	2101      	movs	r1, #1
87802430:	9101      	str	r1, [sp, #4]
87802432:	e7a7      	b.n	87802384 <vsscanf+0x318>
87802434:	220a      	movs	r2, #10
87802436:	e78c      	b.n	87802352 <vsscanf+0x2e6>
87802438:	2200      	movs	r2, #0
8780243a:	e7e9      	b.n	87802410 <vsscanf+0x3a4>
8780243c:	2208      	movs	r2, #8
8780243e:	e788      	b.n	87802352 <vsscanf+0x2e6>
87802440:	9b01      	ldr	r3, [sp, #4]
87802442:	b113      	cbz	r3, 8780244a <vsscanf+0x3de>
87802444:	f1bc 0f00 	cmp.w	ip, #0
87802448:	d158      	bne.n	878024fc <vsscanf+0x490>
8780244a:	a903      	add	r1, sp, #12
8780244c:	f7ff f966 	bl	8780171c <simple_strtoul>
87802450:	f8ab 0000 	strh.w	r0, [fp]
87802454:	e7cf      	b.n	878023f6 <vsscanf+0x38a>
87802456:	9b01      	ldr	r3, [sp, #4]
87802458:	b36b      	cbz	r3, 878024b6 <vsscanf+0x44a>
8780245a:	f1bc 0f00 	cmp.w	ip, #0
8780245e:	d145      	bne.n	878024ec <vsscanf+0x480>
87802460:	a903      	add	r1, sp, #12
87802462:	f7ff f9db 	bl	8780181c <simple_strtoull>
87802466:	4602      	mov	r2, r0
87802468:	460b      	mov	r3, r1
8780246a:	e9cb 2300 	strd	r2, r3, [fp]
8780246e:	e7c2      	b.n	878023f6 <vsscanf+0x38a>
87802470:	9b01      	ldr	r3, [sp, #4]
87802472:	b113      	cbz	r3, 8780247a <vsscanf+0x40e>
87802474:	f1bc 0f00 	cmp.w	ip, #0
87802478:	d146      	bne.n	87802508 <vsscanf+0x49c>
8780247a:	a903      	add	r1, sp, #12
8780247c:	f7ff f94e 	bl	8780171c <simple_strtoul>
87802480:	f88b 0000 	strb.w	r0, [fp]
87802484:	e7b7      	b.n	878023f6 <vsscanf+0x38a>
87802486:	f01e 0f44 	tst.w	lr, #68	@ 0x44
8780248a:	d18c      	bne.n	878023a6 <vsscanf+0x33a>
8780248c:	e615      	b.n	878020ba <vsscanf+0x4e>
8780248e:	2a08      	cmp	r2, #8
87802490:	d004      	beq.n	8780249c <vsscanf+0x430>
87802492:	2b00      	cmp	r3, #0
87802494:	f43f ae11 	beq.w	878020ba <vsscanf+0x4e>
87802498:	2200      	movs	r2, #0
8780249a:	e784      	b.n	878023a6 <vsscanf+0x33a>
8780249c:	fab3 fe83 	clz	lr, r3
878024a0:	ea4f 1e5e 	mov.w	lr, lr, lsr #5
878024a4:	2937      	cmp	r1, #55	@ 0x37
878024a6:	bf94      	ite	ls
878024a8:	4673      	movls	r3, lr
878024aa:	f04e 0301 	orrhi.w	r3, lr, #1
878024ae:	2b00      	cmp	r3, #0
878024b0:	f43f af79 	beq.w	878023a6 <vsscanf+0x33a>
878024b4:	e601      	b.n	878020ba <vsscanf+0x4e>
878024b6:	a903      	add	r1, sp, #12
878024b8:	f7ff f9b0 	bl	8780181c <simple_strtoull>
878024bc:	e9cb 0100 	strd	r0, r1, [fp]
878024c0:	e799      	b.n	878023f6 <vsscanf+0x38a>
878024c2:	f8cd c004 	str.w	ip, [sp, #4]
878024c6:	f1a1 0c2d 	sub.w	ip, r1, #45	@ 0x2d
878024ca:	fabc fc8c 	clz	ip, ip
878024ce:	ea4f 1c5c 	mov.w	ip, ip, lsr #5
878024d2:	e75f      	b.n	87802394 <vsscanf+0x328>
878024d4:	f89e 2002 	ldrb.w	r2, [lr, #2]
878024d8:	f10e 0902 	add.w	r9, lr, #2
878024dc:	2448      	movs	r4, #72	@ 0x48
878024de:	e61d      	b.n	8780211c <vsscanf+0xb0>
878024e0:	3001      	adds	r0, #1
878024e2:	a903      	add	r1, sp, #12
878024e4:	f7ff f91a 	bl	8780171c <simple_strtoul>
878024e8:	4240      	negs	r0, r0
878024ea:	e782      	b.n	878023f2 <vsscanf+0x386>
878024ec:	3001      	adds	r0, #1
878024ee:	a903      	add	r1, sp, #12
878024f0:	f7ff f994 	bl	8780181c <simple_strtoull>
878024f4:	4242      	negs	r2, r0
878024f6:	eb61 0341 	sbc.w	r3, r1, r1, lsl #1
878024fa:	e7b6      	b.n	8780246a <vsscanf+0x3fe>
878024fc:	3001      	adds	r0, #1
878024fe:	a903      	add	r1, sp, #12
87802500:	f7ff f90c 	bl	8780171c <simple_strtoul>
87802504:	4240      	negs	r0, r0
87802506:	e7a3      	b.n	87802450 <vsscanf+0x3e4>
87802508:	3001      	adds	r0, #1
8780250a:	a903      	add	r1, sp, #12
8780250c:	f7ff f906 	bl	8780171c <simple_strtoul>
87802510:	4240      	negs	r0, r0
87802512:	e7b5      	b.n	87802480 <vsscanf+0x414>
87802514:	7801      	ldrb	r1, [r0, #0]
87802516:	2900      	cmp	r1, #0
87802518:	f43f adcf 	beq.w	878020ba <vsscanf+0x4e>
8780251c:	f10e 0502 	add.w	r5, lr, #2
87802520:	247a      	movs	r4, #122	@ 0x7a
87802522:	e605      	b.n	87802130 <vsscanf+0xc4>
87802524:	ffffdf84 			@ <UNDEFINED> instruction: 0xffffdf84
87802528:	00000194 	muleq	r0, r4, r1

8780252c <sscanf>:
8780252c:	b40e      	push	{r1, r2, r3}
8780252e:	b500      	push	{lr}
87802530:	aa01      	add	r2, sp, #4
87802532:	f852 1b04 	ldr.w	r1, [r2], #4
87802536:	f7ff fd99 	bl	8780206c <vsscanf>
8780253a:	f85d eb04 	ldr.w	lr, [sp], #4
8780253e:	b003      	add	sp, #12
87802540:	4770      	bx	lr
87802542:	bf00      	nop
87802544:	0000      	movs	r0, r0
	...

87802548 <__udivsi3>:
87802548:	1e4a      	subs	r2, r1, #1
8780254a:	bf08      	it	eq
8780254c:	4770      	bxeq	lr
8780254e:	f0c0 8124 	bcc.w	8780279a <__udivsi3+0x252>
87802552:	4288      	cmp	r0, r1
87802554:	f240 8116 	bls.w	87802784 <__udivsi3+0x23c>
87802558:	4211      	tst	r1, r2
8780255a:	f000 8117 	beq.w	8780278c <__udivsi3+0x244>
8780255e:	fab0 f380 	clz	r3, r0
87802562:	fab1 f281 	clz	r2, r1
87802566:	eba2 0303 	sub.w	r3, r2, r3
8780256a:	f1c3 031f 	rsb	r3, r3, #31
8780256e:	a204      	add	r2, pc, #16	@ (adr r2, 87802580 <__udivsi3+0x38>)
87802570:	eb02 1303 	add.w	r3, r2, r3, lsl #4
87802574:	f04f 0200 	mov.w	r2, #0
87802578:	469f      	mov	pc, r3
8780257a:	bf00      	nop
8780257c:	f3af 8000 	nop.w
87802580:	ebb0 7fc1 	cmp.w	r0, r1, lsl #31
87802584:	bf00      	nop
87802586:	eb42 0202 	adc.w	r2, r2, r2
8780258a:	bf28      	it	cs
8780258c:	eba0 70c1 	subcs.w	r0, r0, r1, lsl #31
87802590:	ebb0 7f81 	cmp.w	r0, r1, lsl #30
87802594:	bf00      	nop
87802596:	eb42 0202 	adc.w	r2, r2, r2
8780259a:	bf28      	it	cs
8780259c:	eba0 7081 	subcs.w	r0, r0, r1, lsl #30
878025a0:	ebb0 7f41 	cmp.w	r0, r1, lsl #29
878025a4:	bf00      	nop
878025a6:	eb42 0202 	adc.w	r2, r2, r2
878025aa:	bf28      	it	cs
878025ac:	eba0 7041 	subcs.w	r0, r0, r1, lsl #29
878025b0:	ebb0 7f01 	cmp.w	r0, r1, lsl #28
878025b4:	bf00      	nop
878025b6:	eb42 0202 	adc.w	r2, r2, r2
878025ba:	bf28      	it	cs
878025bc:	eba0 7001 	subcs.w	r0, r0, r1, lsl #28
878025c0:	ebb0 6fc1 	cmp.w	r0, r1, lsl #27
878025c4:	bf00      	nop
878025c6:	eb42 0202 	adc.w	r2, r2, r2
878025ca:	bf28      	it	cs
878025cc:	eba0 60c1 	subcs.w	r0, r0, r1, lsl #27
878025d0:	ebb0 6f81 	cmp.w	r0, r1, lsl #26
878025d4:	bf00      	nop
878025d6:	eb42 0202 	adc.w	r2, r2, r2
878025da:	bf28      	it	cs
878025dc:	eba0 6081 	subcs.w	r0, r0, r1, lsl #26
878025e0:	ebb0 6f41 	cmp.w	r0, r1, lsl #25
878025e4:	bf00      	nop
878025e6:	eb42 0202 	adc.w	r2, r2, r2
878025ea:	bf28      	it	cs
878025ec:	eba0 6041 	subcs.w	r0, r0, r1, lsl #25
878025f0:	ebb0 6f01 	cmp.w	r0, r1, lsl #24
878025f4:	bf00      	nop
878025f6:	eb42 0202 	adc.w	r2, r2, r2
878025fa:	bf28      	it	cs
878025fc:	eba0 6001 	subcs.w	r0, r0, r1, lsl #24
87802600:	ebb0 5fc1 	cmp.w	r0, r1, lsl #23
87802604:	bf00      	nop
87802606:	eb42 0202 	adc.w	r2, r2, r2
8780260a:	bf28      	it	cs
8780260c:	eba0 50c1 	subcs.w	r0, r0, r1, lsl #23
87802610:	ebb0 5f81 	cmp.w	r0, r1, lsl #22
87802614:	bf00      	nop
87802616:	eb42 0202 	adc.w	r2, r2, r2
8780261a:	bf28      	it	cs
8780261c:	eba0 5081 	subcs.w	r0, r0, r1, lsl #22
87802620:	ebb0 5f41 	cmp.w	r0, r1, lsl #21
87802624:	bf00      	nop
87802626:	eb42 0202 	adc.w	r2, r2, r2
8780262a:	bf28      	it	cs
8780262c:	eba0 5041 	subcs.w	r0, r0, r1, lsl #21
87802630:	ebb0 5f01 	cmp.w	r0, r1, lsl #20
87802634:	bf00      	nop
87802636:	eb42 0202 	adc.w	r2, r2, r2
8780263a:	bf28      	it	cs
8780263c:	eba0 5001 	subcs.w	r0, r0, r1, lsl #20
87802640:	ebb0 4fc1 	cmp.w	r0, r1, lsl #19
87802644:	bf00      	nop
87802646:	eb42 0202 	adc.w	r2, r2, r2
8780264a:	bf28      	it	cs
8780264c:	eba0 40c1 	subcs.w	r0, r0, r1, lsl #19
87802650:	ebb0 4f81 	cmp.w	r0, r1, lsl #18
87802654:	bf00      	nop
87802656:	eb42 0202 	adc.w	r2, r2, r2
8780265a:	bf28      	it	cs
8780265c:	eba0 4081 	subcs.w	r0, r0, r1, lsl #18
87802660:	ebb0 4f41 	cmp.w	r0, r1, lsl #17
87802664:	bf00      	nop
87802666:	eb42 0202 	adc.w	r2, r2, r2
8780266a:	bf28      	it	cs
8780266c:	eba0 4041 	subcs.w	r0, r0, r1, lsl #17
87802670:	ebb0 4f01 	cmp.w	r0, r1, lsl #16
87802674:	bf00      	nop
87802676:	eb42 0202 	adc.w	r2, r2, r2
8780267a:	bf28      	it	cs
8780267c:	eba0 4001 	subcs.w	r0, r0, r1, lsl #16
87802680:	ebb0 3fc1 	cmp.w	r0, r1, lsl #15
87802684:	bf00      	nop
87802686:	eb42 0202 	adc.w	r2, r2, r2
8780268a:	bf28      	it	cs
8780268c:	eba0 30c1 	subcs.w	r0, r0, r1, lsl #15
87802690:	ebb0 3f81 	cmp.w	r0, r1, lsl #14
87802694:	bf00      	nop
87802696:	eb42 0202 	adc.w	r2, r2, r2
8780269a:	bf28      	it	cs
8780269c:	eba0 3081 	subcs.w	r0, r0, r1, lsl #14
878026a0:	ebb0 3f41 	cmp.w	r0, r1, lsl #13
878026a4:	bf00      	nop
878026a6:	eb42 0202 	adc.w	r2, r2, r2
878026aa:	bf28      	it	cs
878026ac:	eba0 3041 	subcs.w	r0, r0, r1, lsl #13
878026b0:	ebb0 3f01 	cmp.w	r0, r1, lsl #12
878026b4:	bf00      	nop
878026b6:	eb42 0202 	adc.w	r2, r2, r2
878026ba:	bf28      	it	cs
878026bc:	eba0 3001 	subcs.w	r0, r0, r1, lsl #12
878026c0:	ebb0 2fc1 	cmp.w	r0, r1, lsl #11
878026c4:	bf00      	nop
878026c6:	eb42 0202 	adc.w	r2, r2, r2
878026ca:	bf28      	it	cs
878026cc:	eba0 20c1 	subcs.w	r0, r0, r1, lsl #11
878026d0:	ebb0 2f81 	cmp.w	r0, r1, lsl #10
878026d4:	bf00      	nop
878026d6:	eb42 0202 	adc.w	r2, r2, r2
878026da:	bf28      	it	cs
878026dc:	eba0 2081 	subcs.w	r0, r0, r1, lsl #10
878026e0:	ebb0 2f41 	cmp.w	r0, r1, lsl #9
878026e4:	bf00      	nop
878026e6:	eb42 0202 	adc.w	r2, r2, r2
878026ea:	bf28      	it	cs
878026ec:	eba0 2041 	subcs.w	r0, r0, r1, lsl #9
878026f0:	ebb0 2f01 	cmp.w	r0, r1, lsl #8
878026f4:	bf00      	nop
878026f6:	eb42 0202 	adc.w	r2, r2, r2
878026fa:	bf28      	it	cs
878026fc:	eba0 2001 	subcs.w	r0, r0, r1, lsl #8
87802700:	ebb0 1fc1 	cmp.w	r0, r1, lsl #7
87802704:	bf00      	nop
87802706:	eb42 0202 	adc.w	r2, r2, r2
8780270a:	bf28      	it	cs
8780270c:	eba0 10c1 	subcs.w	r0, r0, r1, lsl #7
87802710:	ebb0 1f81 	cmp.w	r0, r1, lsl #6
87802714:	bf00      	nop
87802716:	eb42 0202 	adc.w	r2, r2, r2
8780271a:	bf28      	it	cs
8780271c:	eba0 1081 	subcs.w	r0, r0, r1, lsl #6
87802720:	ebb0 1f41 	cmp.w	r0, r1, lsl #5
87802724:	bf00      	nop
87802726:	eb42 0202 	adc.w	r2, r2, r2
8780272a:	bf28      	it	cs
8780272c:	eba0 1041 	subcs.w	r0, r0, r1, lsl #5
87802730:	ebb0 1f01 	cmp.w	r0, r1, lsl #4
87802734:	bf00      	nop
87802736:	eb42 0202 	adc.w	r2, r2, r2
8780273a:	bf28      	it	cs
8780273c:	eba0 1001 	subcs.w	r0, r0, r1, lsl #4
87802740:	ebb0 0fc1 	cmp.w	r0, r1, lsl #3
87802744:	bf00      	nop
87802746:	eb42 0202 	adc.w	r2, r2, r2
8780274a:	bf28      	it	cs
8780274c:	eba0 00c1 	subcs.w	r0, r0, r1, lsl #3
87802750:	ebb0 0f81 	cmp.w	r0, r1, lsl #2
87802754:	bf00      	nop
87802756:	eb42 0202 	adc.w	r2, r2, r2
8780275a:	bf28      	it	cs
8780275c:	eba0 0081 	subcs.w	r0, r0, r1, lsl #2
87802760:	ebb0 0f41 	cmp.w	r0, r1, lsl #1
87802764:	bf00      	nop
87802766:	eb42 0202 	adc.w	r2, r2, r2
8780276a:	bf28      	it	cs
8780276c:	eba0 0041 	subcs.w	r0, r0, r1, lsl #1
87802770:	ebb0 0f01 	cmp.w	r0, r1
87802774:	bf00      	nop
87802776:	eb42 0202 	adc.w	r2, r2, r2
8780277a:	bf28      	it	cs
8780277c:	eba0 0001 	subcs.w	r0, r0, r1
87802780:	4610      	mov	r0, r2
87802782:	4770      	bx	lr
87802784:	bf0c      	ite	eq
87802786:	2001      	moveq	r0, #1
87802788:	2000      	movne	r0, #0
8780278a:	4770      	bx	lr
8780278c:	fab1 f281 	clz	r2, r1
87802790:	f1c2 021f 	rsb	r2, r2, #31
87802794:	fa20 f002 	lsr.w	r0, r0, r2
87802798:	4770      	bx	lr
8780279a:	b108      	cbz	r0, 878027a0 <__udivsi3+0x258>
8780279c:	f04f 30ff 	mov.w	r0, #4294967295	@ 0xffffffff
878027a0:	f000 b9ce 	b.w	87802b40 <__aeabi_idiv0>

878027a4 <__aeabi_uidivmod>:
878027a4:	2900      	cmp	r1, #0
878027a6:	d0f8      	beq.n	8780279a <__udivsi3+0x252>
878027a8:	e92d 4003 	stmdb	sp!, {r0, r1, lr}
878027ac:	f7ff fecc 	bl	87802548 <__udivsi3>
878027b0:	e8bd 4006 	ldmia.w	sp!, {r1, r2, lr}
878027b4:	fb02 f300 	mul.w	r3, r2, r0
878027b8:	eba1 0103 	sub.w	r1, r1, r3
878027bc:	4770      	bx	lr
878027be:	bf00      	nop

878027c0 <__divsi3>:
878027c0:	2900      	cmp	r1, #0
878027c2:	f000 813e 	beq.w	87802a42 <.divsi3_skip_div0_test+0x27c>

878027c6 <.divsi3_skip_div0_test>:
878027c6:	ea80 0c01 	eor.w	ip, r0, r1
878027ca:	bf48      	it	mi
878027cc:	4249      	negmi	r1, r1
878027ce:	1e4a      	subs	r2, r1, #1
878027d0:	f000 811f 	beq.w	87802a12 <.divsi3_skip_div0_test+0x24c>
878027d4:	0003      	movs	r3, r0
878027d6:	bf48      	it	mi
878027d8:	4243      	negmi	r3, r0
878027da:	428b      	cmp	r3, r1
878027dc:	f240 811e 	bls.w	87802a1c <.divsi3_skip_div0_test+0x256>
878027e0:	4211      	tst	r1, r2
878027e2:	f000 8123 	beq.w	87802a2c <.divsi3_skip_div0_test+0x266>
878027e6:	fab3 f283 	clz	r2, r3
878027ea:	fab1 f081 	clz	r0, r1
878027ee:	eba0 0202 	sub.w	r2, r0, r2
878027f2:	f1c2 021f 	rsb	r2, r2, #31
878027f6:	a004      	add	r0, pc, #16	@ (adr r0, 87802808 <.divsi3_skip_div0_test+0x42>)
878027f8:	eb00 1202 	add.w	r2, r0, r2, lsl #4
878027fc:	f04f 0000 	mov.w	r0, #0
87802800:	4697      	mov	pc, r2
87802802:	bf00      	nop
87802804:	f3af 8000 	nop.w
87802808:	ebb3 7fc1 	cmp.w	r3, r1, lsl #31
8780280c:	bf00      	nop
8780280e:	eb40 0000 	adc.w	r0, r0, r0
87802812:	bf28      	it	cs
87802814:	eba3 73c1 	subcs.w	r3, r3, r1, lsl #31
87802818:	ebb3 7f81 	cmp.w	r3, r1, lsl #30
8780281c:	bf00      	nop
8780281e:	eb40 0000 	adc.w	r0, r0, r0
87802822:	bf28      	it	cs
87802824:	eba3 7381 	subcs.w	r3, r3, r1, lsl #30
87802828:	ebb3 7f41 	cmp.w	r3, r1, lsl #29
8780282c:	bf00      	nop
8780282e:	eb40 0000 	adc.w	r0, r0, r0
87802832:	bf28      	it	cs
87802834:	eba3 7341 	subcs.w	r3, r3, r1, lsl #29
87802838:	ebb3 7f01 	cmp.w	r3, r1, lsl #28
8780283c:	bf00      	nop
8780283e:	eb40 0000 	adc.w	r0, r0, r0
87802842:	bf28      	it	cs
87802844:	eba3 7301 	subcs.w	r3, r3, r1, lsl #28
87802848:	ebb3 6fc1 	cmp.w	r3, r1, lsl #27
8780284c:	bf00      	nop
8780284e:	eb40 0000 	adc.w	r0, r0, r0
87802852:	bf28      	it	cs
87802854:	eba3 63c1 	subcs.w	r3, r3, r1, lsl #27
87802858:	ebb3 6f81 	cmp.w	r3, r1, lsl #26
8780285c:	bf00      	nop
8780285e:	eb40 0000 	adc.w	r0, r0, r0
87802862:	bf28      	it	cs
87802864:	eba3 6381 	subcs.w	r3, r3, r1, lsl #26
87802868:	ebb3 6f41 	cmp.w	r3, r1, lsl #25
8780286c:	bf00      	nop
8780286e:	eb40 0000 	adc.w	r0, r0, r0
87802872:	bf28      	it	cs
87802874:	eba3 6341 	subcs.w	r3, r3, r1, lsl #25
87802878:	ebb3 6f01 	cmp.w	r3, r1, lsl #24
8780287c:	bf00      	nop
8780287e:	eb40 0000 	adc.w	r0, r0, r0
87802882:	bf28      	it	cs
87802884:	eba3 6301 	subcs.w	r3, r3, r1, lsl #24
87802888:	ebb3 5fc1 	cmp.w	r3, r1, lsl #23
8780288c:	bf00      	nop
8780288e:	eb40 0000 	adc.w	r0, r0, r0
87802892:	bf28      	it	cs
87802894:	eba3 53c1 	subcs.w	r3, r3, r1, lsl #23
87802898:	ebb3 5f81 	cmp.w	r3, r1, lsl #22
8780289c:	bf00      	nop
8780289e:	eb40 0000 	adc.w	r0, r0, r0
878028a2:	bf28      	it	cs
878028a4:	eba3 5381 	subcs.w	r3, r3, r1, lsl #22
878028a8:	ebb3 5f41 	cmp.w	r3, r1, lsl #21
878028ac:	bf00      	nop
878028ae:	eb40 0000 	adc.w	r0, r0, r0
878028b2:	bf28      	it	cs
878028b4:	eba3 5341 	subcs.w	r3, r3, r1, lsl #21
878028b8:	ebb3 5f01 	cmp.w	r3, r1, lsl #20
878028bc:	bf00      	nop
878028be:	eb40 0000 	adc.w	r0, r0, r0
878028c2:	bf28      	it	cs
878028c4:	eba3 5301 	subcs.w	r3, r3, r1, lsl #20
878028c8:	ebb3 4fc1 	cmp.w	r3, r1, lsl #19
878028cc:	bf00      	nop
878028ce:	eb40 0000 	adc.w	r0, r0, r0
878028d2:	bf28      	it	cs
878028d4:	eba3 43c1 	subcs.w	r3, r3, r1, lsl #19
878028d8:	ebb3 4f81 	cmp.w	r3, r1, lsl #18
878028dc:	bf00      	nop
878028de:	eb40 0000 	adc.w	r0, r0, r0
878028e2:	bf28      	it	cs
878028e4:	eba3 4381 	subcs.w	r3, r3, r1, lsl #18
878028e8:	ebb3 4f41 	cmp.w	r3, r1, lsl #17
878028ec:	bf00      	nop
878028ee:	eb40 0000 	adc.w	r0, r0, r0
878028f2:	bf28      	it	cs
878028f4:	eba3 4341 	subcs.w	r3, r3, r1, lsl #17
878028f8:	ebb3 4f01 	cmp.w	r3, r1, lsl #16
878028fc:	bf00      	nop
878028fe:	eb40 0000 	adc.w	r0, r0, r0
87802902:	bf28      	it	cs
87802904:	eba3 4301 	subcs.w	r3, r3, r1, lsl #16
87802908:	ebb3 3fc1 	cmp.w	r3, r1, lsl #15
8780290c:	bf00      	nop
8780290e:	eb40 0000 	adc.w	r0, r0, r0
87802912:	bf28      	it	cs
87802914:	eba3 33c1 	subcs.w	r3, r3, r1, lsl #15
87802918:	ebb3 3f81 	cmp.w	r3, r1, lsl #14
8780291c:	bf00      	nop
8780291e:	eb40 0000 	adc.w	r0, r0, r0
87802922:	bf28      	it	cs
87802924:	eba3 3381 	subcs.w	r3, r3, r1, lsl #14
87802928:	ebb3 3f41 	cmp.w	r3, r1, lsl #13
8780292c:	bf00      	nop
8780292e:	eb40 0000 	adc.w	r0, r0, r0
87802932:	bf28      	it	cs
87802934:	eba3 3341 	subcs.w	r3, r3, r1, lsl #13
87802938:	ebb3 3f01 	cmp.w	r3, r1, lsl #12
8780293c:	bf00      	nop
8780293e:	eb40 0000 	adc.w	r0, r0, r0
87802942:	bf28      	it	cs
87802944:	eba3 3301 	subcs.w	r3, r3, r1, lsl #12
87802948:	ebb3 2fc1 	cmp.w	r3, r1, lsl #11
8780294c:	bf00      	nop
8780294e:	eb40 0000 	adc.w	r0, r0, r0
87802952:	bf28      	it	cs
87802954:	eba3 23c1 	subcs.w	r3, r3, r1, lsl #11
87802958:	ebb3 2f81 	cmp.w	r3, r1, lsl #10
8780295c:	bf00      	nop
8780295e:	eb40 0000 	adc.w	r0, r0, r0
87802962:	bf28      	it	cs
87802964:	eba3 2381 	subcs.w	r3, r3, r1, lsl #10
87802968:	ebb3 2f41 	cmp.w	r3, r1, lsl #9
8780296c:	bf00      	nop
8780296e:	eb40 0000 	adc.w	r0, r0, r0
87802972:	bf28      	it	cs
87802974:	eba3 2341 	subcs.w	r3, r3, r1, lsl #9
87802978:	ebb3 2f01 	cmp.w	r3, r1, lsl #8
8780297c:	bf00      	nop
8780297e:	eb40 0000 	adc.w	r0, r0, r0
87802982:	bf28      	it	cs
87802984:	eba3 2301 	subcs.w	r3, r3, r1, lsl #8
87802988:	ebb3 1fc1 	cmp.w	r3, r1, lsl #7
8780298c:	bf00      	nop
8780298e:	eb40 0000 	adc.w	r0, r0, r0
87802992:	bf28      	it	cs
87802994:	eba3 13c1 	subcs.w	r3, r3, r1, lsl #7
87802998:	ebb3 1f81 	cmp.w	r3, r1, lsl #6
8780299c:	bf00      	nop
8780299e:	eb40 0000 	adc.w	r0, r0, r0
878029a2:	bf28      	it	cs
878029a4:	eba3 1381 	subcs.w	r3, r3, r1, lsl #6
878029a8:	ebb3 1f41 	cmp.w	r3, r1, lsl #5
878029ac:	bf00      	nop
878029ae:	eb40 0000 	adc.w	r0, r0, r0
878029b2:	bf28      	it	cs
878029b4:	eba3 1341 	subcs.w	r3, r3, r1, lsl #5
878029b8:	ebb3 1f01 	cmp.w	r3, r1, lsl #4
878029bc:	bf00      	nop
878029be:	eb40 0000 	adc.w	r0, r0, r0
878029c2:	bf28      	it	cs
878029c4:	eba3 1301 	subcs.w	r3, r3, r1, lsl #4
878029c8:	ebb3 0fc1 	cmp.w	r3, r1, lsl #3
878029cc:	bf00      	nop
878029ce:	eb40 0000 	adc.w	r0, r0, r0
878029d2:	bf28      	it	cs
878029d4:	eba3 03c1 	subcs.w	r3, r3, r1, lsl #3
878029d8:	ebb3 0f81 	cmp.w	r3, r1, lsl #2
878029dc:	bf00      	nop
878029de:	eb40 0000 	adc.w	r0, r0, r0
878029e2:	bf28      	it	cs
878029e4:	eba3 0381 	subcs.w	r3, r3, r1, lsl #2
878029e8:	ebb3 0f41 	cmp.w	r3, r1, lsl #1
878029ec:	bf00      	nop
878029ee:	eb40 0000 	adc.w	r0, r0, r0
878029f2:	bf28      	it	cs
878029f4:	eba3 0341 	subcs.w	r3, r3, r1, lsl #1
878029f8:	ebb3 0f01 	cmp.w	r3, r1
878029fc:	bf00      	nop
878029fe:	eb40 0000 	adc.w	r0, r0, r0
87802a02:	bf28      	it	cs
87802a04:	eba3 0301 	subcs.w	r3, r3, r1
87802a08:	f1bc 0f00 	cmp.w	ip, #0
87802a0c:	bf48      	it	mi
87802a0e:	4240      	negmi	r0, r0
87802a10:	4770      	bx	lr
87802a12:	ea9c 0f00 	teq	ip, r0
87802a16:	bf48      	it	mi
87802a18:	4240      	negmi	r0, r0
87802a1a:	4770      	bx	lr
87802a1c:	bf38      	it	cc
87802a1e:	2000      	movcc	r0, #0
87802a20:	bf04      	itt	eq
87802a22:	ea4f 70ec 	moveq.w	r0, ip, asr #31
87802a26:	f040 0001 	orreq.w	r0, r0, #1
87802a2a:	4770      	bx	lr
87802a2c:	fab1 f281 	clz	r2, r1
87802a30:	f1c2 021f 	rsb	r2, r2, #31
87802a34:	f1bc 0f00 	cmp.w	ip, #0
87802a38:	fa23 f002 	lsr.w	r0, r3, r2
87802a3c:	bf48      	it	mi
87802a3e:	4240      	negmi	r0, r0
87802a40:	4770      	bx	lr
87802a42:	2800      	cmp	r0, #0
87802a44:	bfc8      	it	gt
87802a46:	f06f 4000 	mvngt.w	r0, #2147483648	@ 0x80000000
87802a4a:	bfb8      	it	lt
87802a4c:	f04f 4000 	movlt.w	r0, #2147483648	@ 0x80000000
87802a50:	f000 b876 	b.w	87802b40 <__aeabi_idiv0>

87802a54 <__aeabi_idivmod>:
87802a54:	2900      	cmp	r1, #0
87802a56:	d0f4      	beq.n	87802a42 <.divsi3_skip_div0_test+0x27c>
87802a58:	e92d 4003 	stmdb	sp!, {r0, r1, lr}
87802a5c:	f7ff feb3 	bl	878027c6 <.divsi3_skip_div0_test>
87802a60:	e8bd 4006 	ldmia.w	sp!, {r1, r2, lr}
87802a64:	fb02 f300 	mul.w	r3, r2, r0
87802a68:	eba1 0103 	sub.w	r1, r1, r3
87802a6c:	4770      	bx	lr
87802a6e:	bf00      	nop

87802a70 <__aeabi_ldivmod>:
87802a70:	b97b      	cbnz	r3, 87802a92 <__aeabi_ldivmod+0x22>
87802a72:	b972      	cbnz	r2, 87802a92 <__aeabi_ldivmod+0x22>
87802a74:	2900      	cmp	r1, #0
87802a76:	bfbe      	ittt	lt
87802a78:	2000      	movlt	r0, #0
87802a7a:	f04f 4100 	movlt.w	r1, #2147483648	@ 0x80000000
87802a7e:	e006      	blt.n	87802a8e <__aeabi_ldivmod+0x1e>
87802a80:	bf08      	it	eq
87802a82:	2800      	cmpeq	r0, #0
87802a84:	bf1c      	itt	ne
87802a86:	f06f 4100 	mvnne.w	r1, #2147483648	@ 0x80000000
87802a8a:	f04f 30ff 	movne.w	r0, #4294967295	@ 0xffffffff
87802a8e:	f000 b857 	b.w	87802b40 <__aeabi_idiv0>
87802a92:	f1ad 0c08 	sub.w	ip, sp, #8
87802a96:	e96d ce04 	strd	ip, lr, [sp, #-16]!
87802a9a:	2900      	cmp	r1, #0
87802a9c:	db09      	blt.n	87802ab2 <__aeabi_ldivmod+0x42>
87802a9e:	2b00      	cmp	r3, #0
87802aa0:	db1a      	blt.n	87802ad8 <__aeabi_ldivmod+0x68>
87802aa2:	f000 f853 	bl	87802b4c <__udivmoddi4>
87802aa6:	f8dd e004 	ldr.w	lr, [sp, #4]
87802aaa:	e9dd 2302 	ldrd	r2, r3, [sp, #8]
87802aae:	b004      	add	sp, #16
87802ab0:	4770      	bx	lr
87802ab2:	4240      	negs	r0, r0
87802ab4:	eb61 0141 	sbc.w	r1, r1, r1, lsl #1
87802ab8:	2b00      	cmp	r3, #0
87802aba:	db1b      	blt.n	87802af4 <__aeabi_ldivmod+0x84>
87802abc:	f000 f846 	bl	87802b4c <__udivmoddi4>
87802ac0:	f8dd e004 	ldr.w	lr, [sp, #4]
87802ac4:	e9dd 2302 	ldrd	r2, r3, [sp, #8]
87802ac8:	b004      	add	sp, #16
87802aca:	4240      	negs	r0, r0
87802acc:	eb61 0141 	sbc.w	r1, r1, r1, lsl #1
87802ad0:	4252      	negs	r2, r2
87802ad2:	eb63 0343 	sbc.w	r3, r3, r3, lsl #1
87802ad6:	4770      	bx	lr
87802ad8:	4252      	negs	r2, r2
87802ada:	eb63 0343 	sbc.w	r3, r3, r3, lsl #1
87802ade:	f000 f835 	bl	87802b4c <__udivmoddi4>
87802ae2:	f8dd e004 	ldr.w	lr, [sp, #4]
87802ae6:	e9dd 2302 	ldrd	r2, r3, [sp, #8]
87802aea:	b004      	add	sp, #16
87802aec:	4240      	negs	r0, r0
87802aee:	eb61 0141 	sbc.w	r1, r1, r1, lsl #1
87802af2:	4770      	bx	lr
87802af4:	4252      	negs	r2, r2
87802af6:	eb63 0343 	sbc.w	r3, r3, r3, lsl #1
87802afa:	f000 f827 	bl	87802b4c <__udivmoddi4>
87802afe:	f8dd e004 	ldr.w	lr, [sp, #4]
87802b02:	e9dd 2302 	ldrd	r2, r3, [sp, #8]
87802b06:	b004      	add	sp, #16
87802b08:	4252      	negs	r2, r2
87802b0a:	eb63 0343 	sbc.w	r3, r3, r3, lsl #1
87802b0e:	4770      	bx	lr

87802b10 <__aeabi_uldivmod>:
87802b10:	b953      	cbnz	r3, 87802b28 <__aeabi_uldivmod+0x18>
87802b12:	b94a      	cbnz	r2, 87802b28 <__aeabi_uldivmod+0x18>
87802b14:	2900      	cmp	r1, #0
87802b16:	bf08      	it	eq
87802b18:	2800      	cmpeq	r0, #0
87802b1a:	bf1c      	itt	ne
87802b1c:	f04f 31ff 	movne.w	r1, #4294967295	@ 0xffffffff
87802b20:	f04f 30ff 	movne.w	r0, #4294967295	@ 0xffffffff
87802b24:	f000 b80c 	b.w	87802b40 <__aeabi_idiv0>
87802b28:	f1ad 0c08 	sub.w	ip, sp, #8
87802b2c:	e96d ce04 	strd	ip, lr, [sp, #-16]!
87802b30:	f000 f80c 	bl	87802b4c <__udivmoddi4>
87802b34:	f8dd e004 	ldr.w	lr, [sp, #4]
87802b38:	e9dd 2302 	ldrd	r2, r3, [sp, #8]
87802b3c:	b004      	add	sp, #16
87802b3e:	4770      	bx	lr

87802b40 <__aeabi_idiv0>:
87802b40:	b502      	push	{r1, lr}
87802b42:	f04f 0008 	mov.w	r0, #8
87802b46:	f7fe f8cd 	bl	87800ce4 <raise>
87802b4a:	bd02      	pop	{r1, pc}

87802b4c <__udivmoddi4>:
87802b4c:	e92d 43f0 	stmdb	sp!, {r4, r5, r6, r7, r8, r9, lr}
87802b50:	460d      	mov	r5, r1
87802b52:	429d      	cmp	r5, r3
87802b54:	4604      	mov	r4, r0
87802b56:	4610      	mov	r0, r2
87802b58:	4619      	mov	r1, r3
87802b5a:	bf08      	it	eq
87802b5c:	4284      	cmpeq	r4, r0
87802b5e:	9a07      	ldr	r2, [sp, #28]
87802b60:	bf3c      	itt	cc
87802b62:	2000      	movcc	r0, #0
87802b64:	2100      	movcc	r1, #0
87802b66:	d36a      	bcc.n	87802c3e <__udivmoddi4+0xf2>
87802b68:	fab1 f681 	clz	r6, r1
87802b6c:	2900      	cmp	r1, #0
87802b6e:	d06f      	beq.n	87802c50 <__udivmoddi4+0x104>
87802b70:	fab5 f385 	clz	r3, r5
87802b74:	2d00      	cmp	r5, #0
87802b76:	d067      	beq.n	87802c48 <__udivmoddi4+0xfc>
87802b78:	1af3      	subs	r3, r6, r3
87802b7a:	f1a3 0c20 	sub.w	ip, r3, #32
87802b7e:	fa01 f703 	lsl.w	r7, r1, r3
87802b82:	fa00 fe0c 	lsl.w	lr, r0, ip
87802b86:	f1c3 0820 	rsb	r8, r3, #32
87802b8a:	fa20 f108 	lsr.w	r1, r0, r8
87802b8e:	fa00 f603 	lsl.w	r6, r0, r3
87802b92:	ea47 070e 	orr.w	r7, r7, lr
87802b96:	469e      	mov	lr, r3
87802b98:	430f      	orrs	r7, r1
87802b9a:	42bd      	cmp	r5, r7
87802b9c:	bf08      	it	eq
87802b9e:	42b4      	cmpeq	r4, r6
87802ba0:	bf3c      	itt	cc
87802ba2:	2000      	movcc	r0, #0
87802ba4:	2100      	movcc	r1, #0
87802ba6:	d30c      	bcc.n	87802bc2 <__udivmoddi4+0x76>
87802ba8:	f04f 0901 	mov.w	r9, #1
87802bac:	1ba4      	subs	r4, r4, r6
87802bae:	fa29 f808 	lsr.w	r8, r9, r8
87802bb2:	fa09 f10c 	lsl.w	r1, r9, ip
87802bb6:	fa09 f003 	lsl.w	r0, r9, r3
87802bba:	ea41 0108 	orr.w	r1, r1, r8
87802bbe:	eb65 0507 	sbc.w	r5, r5, r7
87802bc2:	2b00      	cmp	r3, #0
87802bc4:	d03b      	beq.n	87802c3e <__udivmoddi4+0xf2>
87802bc6:	087f      	lsrs	r7, r7, #1
87802bc8:	ea4f 0636 	mov.w	r6, r6, rrx
87802bcc:	e009      	b.n	87802be2 <__udivmoddi4+0x96>
87802bce:	1ba4      	subs	r4, r4, r6
87802bd0:	eb65 0507 	sbc.w	r5, r5, r7
87802bd4:	1924      	adds	r4, r4, r4
87802bd6:	416d      	adcs	r5, r5
87802bd8:	3401      	adds	r4, #1
87802bda:	f145 0500 	adc.w	r5, r5, #0
87802bde:	3b01      	subs	r3, #1
87802be0:	d007      	beq.n	87802bf2 <__udivmoddi4+0xa6>
87802be2:	42bd      	cmp	r5, r7
87802be4:	bf08      	it	eq
87802be6:	42b4      	cmpeq	r4, r6
87802be8:	d2f1      	bcs.n	87802bce <__udivmoddi4+0x82>
87802bea:	1924      	adds	r4, r4, r4
87802bec:	416d      	adcs	r5, r5
87802bee:	3b01      	subs	r3, #1
87802bf0:	d1f7      	bne.n	87802be2 <__udivmoddi4+0x96>
87802bf2:	f1ce 0720 	rsb	r7, lr, #32
87802bf6:	fa24 f60e 	lsr.w	r6, r4, lr
87802bfa:	fa05 f707 	lsl.w	r7, r5, r7
87802bfe:	f1ae 0320 	sub.w	r3, lr, #32
87802c02:	fa25 f303 	lsr.w	r3, r5, r3
87802c06:	fa25 fc0e 	lsr.w	ip, r5, lr
87802c0a:	1900      	adds	r0, r0, r4
87802c0c:	ea46 0607 	orr.w	r6, r6, r7
87802c10:	ea46 0403 	orr.w	r4, r6, r3
87802c14:	4169      	adcs	r1, r5
87802c16:	4665      	mov	r5, ip
87802c18:	f1ae 0c20 	sub.w	ip, lr, #32
87802c1c:	fa05 f70e 	lsl.w	r7, r5, lr
87802c20:	fa04 fc0c 	lsl.w	ip, r4, ip
87802c24:	fa04 f60e 	lsl.w	r6, r4, lr
87802c28:	f1ce 0320 	rsb	r3, lr, #32
87802c2c:	fa24 f303 	lsr.w	r3, r4, r3
87802c30:	ea47 070c 	orr.w	r7, r7, ip
87802c34:	1b80      	subs	r0, r0, r6
87802c36:	ea47 0703 	orr.w	r7, r7, r3
87802c3a:	eb61 0107 	sbc.w	r1, r1, r7
87802c3e:	b10a      	cbz	r2, 87802c44 <__udivmoddi4+0xf8>
87802c40:	e9c2 4500 	strd	r4, r5, [r2]
87802c44:	e8bd 83f0 	ldmia.w	sp!, {r4, r5, r6, r7, r8, r9, pc}
87802c48:	fab4 f384 	clz	r3, r4
87802c4c:	3320      	adds	r3, #32
87802c4e:	e793      	b.n	87802b78 <__udivmoddi4+0x2c>
87802c50:	fab0 f380 	clz	r3, r0
87802c54:	f103 0620 	add.w	r6, r3, #32
87802c58:	fab5 f385 	clz	r3, r5
87802c5c:	2d00      	cmp	r5, #0
87802c5e:	d18b      	bne.n	87802b78 <__udivmoddi4+0x2c>
87802c60:	e7f2      	b.n	87802c48 <__udivmoddi4+0xfc>
87802c62:	bf00      	nop
87802c64:	0000      	movs	r0, r0
	...

87802c68 <__main_from_arm>:
87802c68:	e51ff004 	ldr	pc, [pc, #-4]	@ 87802c6c <__main_from_arm+0x4>
87802c6c:	87802c71 			@ <UNDEFINED> instruction: 0x87802c71

Disassembly of section .text.startup:

87802c70 <main>:
87802c70:	b580      	push	{r7, lr}
87802c72:	2300      	movs	r3, #0
87802c74:	f8df 8068 	ldr.w	r8, [pc, #104]	@ 87802ce0 <main+0x70>
87802c78:	b082      	sub	sp, #8
87802c7a:	4f1a      	ldr	r7, [pc, #104]	@ (87802ce4 <main+0x74>)
87802c7c:	4e1a      	ldr	r6, [pc, #104]	@ (87802ce8 <main+0x78>)
87802c7e:	44f8      	add	r8, pc
87802c80:	447f      	add	r7, pc
87802c82:	ad01      	add	r5, sp, #4
87802c84:	e9cd 3300 	strd	r3, r3, [sp]
87802c88:	f7fd fe58 	bl	8780093c <interrupt_init>
87802c8c:	f7fd fcf0 	bl	87800670 <clk_enable>
87802c90:	447e      	add	r6, pc
87802c92:	f7fd fcfd 	bl	87800690 <imx6ull_clkInit>
87802c96:	466c      	mov	r4, sp
87802c98:	f7fd feb8 	bl	87800a0c <uart1_init>
87802c9c:	4813      	ldr	r0, [pc, #76]	@ (87802cec <main+0x7c>)
87802c9e:	4478      	add	r0, pc
87802ca0:	f7fe f8a0 	bl	87800de4 <printf>
87802ca4:	f7fd fb8c 	bl	878003c0 <led_init>
87802ca8:	f7fd fa7c 	bl	878001a4 <beep_init>
87802cac:	f7fd fab8 	bl	87800220 <key_init>
87802cb0:	f7fd fb34 	bl	8780031c <key_filter_init>
87802cb4:	f7fd fcc6 	bl	87800644 <gpt1_counter_init>
87802cb8:	480d      	ldr	r0, [pc, #52]	@ (87802cf0 <main+0x80>)
87802cba:	4478      	add	r0, pc
87802cbc:	f7fe f892 	bl	87800de4 <printf>
87802cc0:	4640      	mov	r0, r8
87802cc2:	f7fe f88f 	bl	87800de4 <printf>
87802cc6:	462a      	mov	r2, r5
87802cc8:	4621      	mov	r1, r4
87802cca:	4638      	mov	r0, r7
87802ccc:	f7fe f8aa 	bl	87800e24 <scanf>
87802cd0:	4630      	mov	r0, r6
87802cd2:	e9dd 1200 	ldrd	r1, r2, [sp]
87802cd6:	188b      	adds	r3, r1, r2
87802cd8:	f7fe f884 	bl	87800de4 <printf>
87802cdc:	e7f0      	b.n	87802cc0 <main+0x50>
87802cde:	bf00      	nop
87802ce0:	000000d6 	ldrdeq	r0, [r0], -r6
87802ce4:	00000104 	andeq	r0, r0, r4, lsl #2
87802ce8:	000000fc 	strdeq	r0, [r0], -ip
87802cec:	0000007a 	andeq	r0, r0, sl, ror r0
87802cf0:	0000007e 	andeq	r0, r0, lr, ror r0

Disassembly of section .rodata:

87802cf4 <CSWTCH.8>:
87802cf4:	00000004 	andeq	r0, r0, r4
87802cf8:	00000003 	andeq	r0, r0, r3
87802cfc:	00000002 	andeq	r0, r0, r2
87802d00:	00000001 	andeq	r0, r0, r1
87802d04:	00000000 	andeq	r0, r0, r0
87802d08:	00000006 	andeq	r0, r0, r6

87802d0c <digits.0>:
87802d0c:	33323130 	teqcc	r2, #48, 2
87802d10:	37363534 			@ <UNDEFINED> instruction: 0x37363534
87802d14:	42413938 	submi	r3, r1, #56, 18	@ 0xe0000
87802d18:	46454443 	strbmi	r4, [r5], -r3, asr #8

Disassembly of section .rodata.str1.4:

87802d1c <.rodata.str1.4>:
87802d1c:	333b5b1b 	teqcc	fp, #27648	@ 0x6c00
87802d20:	0a0d6d31 	beq	87b5e1ec <__bss_end+0x35a624>
87802d24:	20707061 	rsbscs	r7, r0, r1, rrx
87802d28:	74696e69 	strbtvc	r6, [r9], #-3689	@ 0xfffff197
87802d2c:	61747320 	cmnvs	r4, r0, lsr #6
87802d30:	2e2e7472 	mcrcs	4, 1, r7, cr14, cr2, {3}
87802d34:	305b1b2e 	subscc	r1, fp, lr, lsr #22
87802d38:	000a0d6d 	andeq	r0, sl, sp, ror #26
87802d3c:	333b5b1b 	teqcc	fp, #27648	@ 0x6c00
87802d40:	70616d31 	rsbvc	r6, r1, r1, lsr sp
87802d44:	6e692070 	mcrvs	0, 3, r2, cr9, cr0, {3}
87802d48:	64207469 	strtvs	r7, [r0], #-1129	@ 0xfffffb97
87802d4c:	2e656e6f 	cdpcs	14, 6, cr6, cr5, cr15, {3}
87802d50:	6d305b1b 	fldmdbxvs	r0!, {d5-d17}	@ Deprecated
87802d54:	00000a0d 	andeq	r0, r0, sp, lsl #20
87802d58:	61656c50 	cmnvs	r5, r0, asr ip
87802d5c:	65206573 	strvs	r6, [r0, #-1395]!	@ 0xfffffa8d
87802d60:	7265746e 	rsbvc	r7, r5, #1845493760	@ 0x6e000000
87802d64:	6f777420 	svcvs	0x00777420
87802d68:	6d756e20 	ldclvs	14, cr6, [r5, #-128]!	@ 0xffffff80
87802d6c:	73202c73 			@ <UNDEFINED> instruction: 0x73202c73
87802d70:	74696c70 	strbtvc	r6, [r9], #-3184	@ 0xfffff390
87802d74:	20796220 	rsbscs	r6, r9, r0, lsr #4
87802d78:	6e616c62 	cdpvs	12, 6, cr6, cr1, cr2, {3}
87802d7c:	6170736b 	cmnvs	r0, fp, ror #6
87802d80:	203a6563 	eorscs	r6, sl, r3, ror #10
87802d84:	00000000 	andeq	r0, r0, r0
87802d88:	25206425 	strcs	r6, [r0, #-1061]!	@ 0xfffffbdb
87802d8c:	00000064 	andeq	r0, r0, r4, rrx
87802d90:	64250a0d 	strtvs	r0, [r5], #-2573	@ 0xfffff5f3
87802d94:	25202b20 	strcs	r2, [r0, #-2848]!	@ 0xfffff4e0
87802d98:	203d2064 	eorscs	r2, sp, r4, rrx
87802d9c:	0a0d6425 	beq	87b5be38 <__bss_end+0x358270>
87802da0:	00000000 	andeq	r0, r0, r0
87802da4:	4c554e3c 	mrrcmi	14, 3, r4, r5, cr12
87802da8:	Address 0x87802da8 is out of bounds.


Disassembly of section .ARM.exidx:

87802dac <.ARM.exidx>:
87802dac:	7ffffda0 	svcvc	0x00fffda0
87802db0:	00000001 	andeq	r0, r0, r1

Disassembly of section .comment:

00000000 <.comment>:
   0:	3a434347 	bcc	10d0d24 <shift+0x10d0d24>
   4:	62552820 	subsvs	r2, r5, #32, 16	@ 0x200000
   8:	75746e75 	ldrbvc	r6, [r4, #-3701]!	@ 0xfffff18b
   c:	2e333120 	rsfcssp	f3, f3, f0
  10:	2d302e33 	ldccs	14, cr2, [r0, #-204]!	@ 0xffffff34
  14:	75627536 	strbvc	r7, [r2, #-1334]!	@ 0xfffffaca
  18:	3275746e 	rsbscc	r7, r5, #1845493760	@ 0x6e000000
  1c:	2e34327e 	mrccs	2, 1, r3, cr4, cr14, {3}
  20:	20293430 	eorcs	r3, r9, r0, lsr r4
  24:	332e3331 			@ <UNDEFINED> instruction: 0x332e3331
  28:	4700302e 	strmi	r3, [r0, -lr, lsr #32]
  2c:	203a4343 	eorscs	r4, sl, r3, asr #6
  30:	6e694c28 	cdpvs	12, 6, cr4, cr9, cr8, {1}
  34:	206f7261 	rsbcs	r7, pc, r1, ror #4
  38:	20434347 	subcs	r4, r3, r7, asr #6
  3c:	2d392e34 	ldccs	14, cr2, [r9, #-208]!	@ 0xffffff30
  40:	37313032 			@ <UNDEFINED> instruction: 0x37313032
  44:	2931302e 	ldmdbcs	r1!, {r1, r2, r3, r5, ip, sp}
  48:	392e3420 	stmdbcc	lr!, {r5, sl, ip, sp}
  4c:	Address 0x4c is out of bounds.


Disassembly of section .ARM.attributes:

00000000 <.ARM.attributes>:
   0:	00002e41 	andeq	r2, r0, r1, asr #28
   4:	61656100 	cmnvs	r5, r0, lsl #2
   8:	01006962 	tsteq	r0, r2, ror #18
   c:	00000024 	andeq	r0, r0, r4, lsr #32
  10:	412d3705 			@ <UNDEFINED> instruction: 0x412d3705
  14:	070a0600 	streq	r0, [sl, -r0, lsl #12]
  18:	09010841 	stmdbeq	r1, {r0, r6, fp}
  1c:	12040a02 	andne	r0, r4, #8192	@ 0x2000
  20:	15011404 	strne	r1, [r1, #-1028]	@ 0xfffffbfc
  24:	18031701 	stmdane	r3, {r0, r8, r9, sl, ip}
  28:	1c021a01 			@ <UNDEFINED> instruction: 0x1c021a01
  2c:	Address 0x2c is out of bounds.


Disassembly of section .data:

87802db4 <_ctype>:
87802db4:	08080808 	stmdaeq	r8, {r3, fp}
87802db8:	08080808 	stmdaeq	r8, {r3, fp}
87802dbc:	28282808 	stmdacs	r8!, {r3, fp, sp}
87802dc0:	08082828 	stmdaeq	r8, {r3, r5, fp, sp}
87802dc4:	08080808 	stmdaeq	r8, {r3, fp}
87802dc8:	08080808 	stmdaeq	r8, {r3, fp}
87802dcc:	08080808 	stmdaeq	r8, {r3, fp}
87802dd0:	08080808 	stmdaeq	r8, {r3, fp}
87802dd4:	101010a0 	andsne	r1, r0, r0, lsr #1
87802dd8:	10101010 	andsne	r1, r0, r0, lsl r0
87802ddc:	10101010 	andsne	r1, r0, r0, lsl r0
87802de0:	10101010 	andsne	r1, r0, r0, lsl r0
87802de4:	04040404 	streq	r0, [r4], #-1028	@ 0xfffffbfc
87802de8:	04040404 	streq	r0, [r4], #-1028	@ 0xfffffbfc
87802dec:	10100404 	andsne	r0, r0, r4, lsl #8
87802df0:	10101010 	andsne	r1, r0, r0, lsl r0
87802df4:	41414110 	cmpmi	r1, r0, lsl r1
87802df8:	01414141 	cmpeq	r1, r1, asr #2
87802dfc:	01010101 	tsteq	r1, r1, lsl #2
87802e00:	01010101 	tsteq	r1, r1, lsl #2
87802e04:	01010101 	tsteq	r1, r1, lsl #2
87802e08:	01010101 	tsteq	r1, r1, lsl #2
87802e0c:	10010101 	andne	r0, r1, r1, lsl #2
87802e10:	10101010 	andsne	r1, r0, r0, lsl r0
87802e14:	42424210 	submi	r4, r2, #16, 4
87802e18:	02424242 	subeq	r4, r2, #536870916	@ 0x20000004
87802e1c:	02020202 	andeq	r0, r2, #536870912	@ 0x20000000
87802e20:	02020202 	andeq	r0, r2, #536870912	@ 0x20000000
87802e24:	02020202 	andeq	r0, r2, #536870912	@ 0x20000000
87802e28:	02020202 	andeq	r0, r2, #536870912	@ 0x20000000
87802e2c:	10020202 	andne	r0, r2, r2, lsl #4
87802e30:	08101010 	ldmdaeq	r0, {r4, ip}
	...
87802e54:	101010a0 	andsne	r1, r0, r0, lsr #1
87802e58:	10101010 	andsne	r1, r0, r0, lsl r0
87802e5c:	10101010 	andsne	r1, r0, r0, lsl r0
87802e60:	10101010 	andsne	r1, r0, r0, lsl r0
87802e64:	10101010 	andsne	r1, r0, r0, lsl r0
87802e68:	10101010 	andsne	r1, r0, r0, lsl r0
87802e6c:	10101010 	andsne	r1, r0, r0, lsl r0
87802e70:	10101010 	andsne	r1, r0, r0, lsl r0
87802e74:	01010101 	tsteq	r1, r1, lsl #2
87802e78:	01010101 	tsteq	r1, r1, lsl #2
87802e7c:	01010101 	tsteq	r1, r1, lsl #2
87802e80:	01010101 	tsteq	r1, r1, lsl #2
87802e84:	01010101 	tsteq	r1, r1, lsl #2
87802e88:	10010101 	andne	r0, r1, r1, lsl #2
87802e8c:	01010101 	tsteq	r1, r1, lsl #2
87802e90:	02010101 	andeq	r0, r1, #1073741824	@ 0x40000000
87802e94:	02020202 	andeq	r0, r2, #536870912	@ 0x20000000
87802e98:	02020202 	andeq	r0, r2, #536870912	@ 0x20000000
87802e9c:	02020202 	andeq	r0, r2, #536870912	@ 0x20000000
87802ea0:	02020202 	andeq	r0, r2, #536870912	@ 0x20000000
87802ea4:	02020202 	andeq	r0, r2, #536870912	@ 0x20000000
87802ea8:	10020202 	andne	r0, r2, r2, lsl #4
87802eac:	02020202 	andeq	r0, r2, #536870912	@ 0x20000000
87802eb0:	02020202 	andeq	r0, r2, #536870912	@ 0x20000000

Disassembly of section .debug_frame:

00000000 <.debug_frame>:
   0:	0000000c 	andeq	r0, r0, ip
   4:	ffffffff 			@ <UNDEFINED> instruction: 0xffffffff
   8:	7c010001 	stcvc	0, cr0, [r1], {1}
   c:	000d0c0e 	andeq	r0, sp, lr, lsl #24
  10:	0000000c 	andeq	r0, r0, ip
  14:	00000000 	andeq	r0, r0, r0
  18:	87802549 	strhi	r2, [r0, r9, asr #10]
  1c:	0000025c 	andeq	r0, r0, ip, asr r2
  20:	0000000c 	andeq	r0, r0, ip
  24:	ffffffff 			@ <UNDEFINED> instruction: 0xffffffff
  28:	7c010001 	stcvc	0, cr0, [r1], {1}
  2c:	000d0c0e 	andeq	r0, sp, lr, lsl #24
  30:	0000000c 	andeq	r0, r0, ip
  34:	00000020 	andeq	r0, r0, r0, lsr #32
  38:	878027c1 	strhi	r2, [r0, r1, asr #15]
  3c:	00000294 	muleq	r0, r4, r2
  40:	0000000c 	andeq	r0, r0, ip
  44:	ffffffff 			@ <UNDEFINED> instruction: 0xffffffff
  48:	7c020001 	stcvc	0, cr0, [r2], {1}
  4c:	000d0c0e 	andeq	r0, sp, lr, lsl #24
  50:	00000030 	andeq	r0, r0, r0, lsr r0
  54:	00000040 	andeq	r0, r0, r0, asr #32
  58:	87802a70 			@ <UNDEFINED> instruction: 0x87802a70
  5c:	000000a0 	andeq	r0, r0, r0, lsr #1
  60:	8e100e55 	mrchi	14, 0, r0, cr0, cr5, {2}
  64:	450a4603 	strmi	r4, [sl, #-1539]	@ 0xfffff9fd
  68:	41100ece 	tstmi	r0, lr, asr #29
  6c:	450a470b 	strmi	r4, [sl, #-1803]	@ 0xfffff8f5
  70:	47100ece 	ldrmi	r0, [r0, -lr, asr #29]
  74:	450a450b 	strmi	r4, [sl, #-1291]	@ 0xfffffaf5
  78:	44100ece 	ldrmi	r0, [r0], #-3790	@ 0xfffff132
  7c:	0ece4a0b 	vdiveq.f32	s9, s28, s22
  80:	00000010 	andeq	r0, r0, r0, lsl r0
  84:	0000000c 	andeq	r0, r0, ip
  88:	ffffffff 			@ <UNDEFINED> instruction: 0xffffffff
  8c:	7c020001 	stcvc	0, cr0, [r2], {1}
  90:	000d0c0e 	andeq	r0, sp, lr, lsl #24
  94:	00000018 	andeq	r0, r0, r8, lsl r0
  98:	00000084 	andeq	r0, r0, r4, lsl #1
  9c:	87802b10 	usada8hi	r0, r0, fp, r2
  a0:	00000030 	andeq	r0, r0, r0, lsr r0
  a4:	8e100e50 	mrchi	14, 0, r0, cr0, cr0, {2}
  a8:	0ece4703 	cdpeq	7, 12, cr4, cr14, cr3, {0}
  ac:	00000010 	andeq	r0, r0, r0, lsl r0
  b0:	0000000c 	andeq	r0, r0, ip
  b4:	ffffffff 			@ <UNDEFINED> instruction: 0xffffffff
  b8:	7c020001 	stcvc	0, cr0, [r2], {1}
  bc:	000d0c0e 	andeq	r0, sp, lr, lsl #24
  c0:	00000020 	andeq	r0, r0, r0, lsr #32
  c4:	000000b0 	strheq	r0, [r0], -r0	@ <UNPREDICTABLE>
  c8:	87802b4c 	strhi	r2, [r0, ip, asr #22]
  cc:	00000116 	andeq	r0, r0, r6, lsl r1
  d0:	841c0e42 	ldrhi	r0, [ip], #-3650	@ 0xfffff1be
  d4:	86068507 	strhi	r8, [r6], -r7, lsl #10
  d8:	88048705 	stmdahi	r4, {r0, r2, r8, r9, sl, pc}
  dc:	8e028903 	vmlahi.f16	s16, s4, s6	@ <UNPREDICTABLE>
  e0:	00000001 	andeq	r0, r0, r1

Disassembly of section .debug_line:

00000000 <.debug_line>:
   0:	00000100 	andeq	r0, r0, r0, lsl #2
   4:	00c70002 	sbceq	r0, r7, r2
   8:	01020000 	mrseq	r0, (UNDEF: 2)
   c:	000d0efb 	strdeq	r0, [sp], -fp
  10:	01010101 	tsteq	r1, r1, lsl #2
  14:	01000000 	mrseq	r0, (UNDEF: 0)
  18:	2f010000 	svccs	0x00010000
  1c:	656d6f68 	strbvs	r6, [sp, #-3944]!	@ 0xfffff098
  20:	7763742f 	strbvc	r7, [r3, -pc, lsr #8]!
  24:	75622d67 	strbvc	r2, [r2, #-3431]!	@ 0xfffff299
  28:	73646c69 	cmnvc	r4, #26880	@ 0x6900
  2c:	6576616c 	ldrbvs	r6, [r6, #-364]!	@ 0xfffffe94
  30:	726f772f 	rsbvc	r7, pc, #12320768	@ 0xbc0000
  34:	6170736b 	cmnvs	r0, fp, ror #6
  38:	742f6563 	strtvc	r6, [pc], #-1379	@ 40 <shift+0x40>
  3c:	2d677763 	stclcs	7, cr7, [r7, #-396]!	@ 0xfffffe74
  40:	656b616d 	strbvs	r6, [fp, #-365]!	@ 0xfffffe93
  44:	6c65722d 	sfmvs	f7, 2, [r5], #-180	@ 0xffffff4c
  48:	65736165 	ldrbvs	r6, [r3, #-357]!	@ 0xfffffe9b
  4c:	62616c2f 	rsbvs	r6, r1, #12032	@ 0x2f00
  50:	642f6c65 	strtvs	r6, [pc], #-3173	@ 58 <shift+0x58>
  54:	656b636f 	strbvs	r6, [fp, #-879]!	@ 0xfffffc91
  58:	72742d72 	rsbsvc	r2, r4, #7296	@ 0x1c80
  5c:	79747375 	ldmdbvc	r4!, {r0, r2, r4, r5, r6, r8, r9, ip, sp, lr}^
  60:	646d612d 	strbtvs	r6, [sp], #-301	@ 0xfffffed3
  64:	742d3436 	strtvc	r3, [sp], #-1078	@ 0xfffffbca
  68:	2d677763 	stclcs	7, cr7, [r7, #-396]!	@ 0xfffffe74
  6c:	6c697562 	cfstr64vs	mvdx7, [r9], #-392	@ 0xfffffe78
  70:	61742f64 	cmnvs	r4, r4, ror #30
  74:	74656772 	strbtvc	r6, [r5], #-1906	@ 0xfffff88e
  78:	6d72612f 	ldfvse	f6, [r2, #-188]!	@ 0xffffff44
  7c:	6e696c2d 	cdpvs	12, 6, cr6, cr9, cr13, {1}
  80:	672d7875 			@ <UNDEFINED> instruction: 0x672d7875
  84:	6165756e 	cmnvs	r5, lr, ror #10
  88:	66686962 	strbtvs	r6, [r8], -r2, ror #18
  8c:	616e732f 	cmnvs	lr, pc, lsr #6
  90:	6f687370 	svcvs	0x00687370
  94:	672f7374 			@ <UNDEFINED> instruction: 0x672f7374
  98:	6c2d6363 	stcvs	3, cr6, [sp], #-396	@ 0xfffffe74
  9c:	72616e69 	rsbvc	r6, r1, #1680	@ 0x690
  a0:	2e342d6f 	cdpcs	13, 3, cr2, cr4, cr15, {3}
  a4:	30322d39 	eorscc	r2, r2, r9, lsr sp
  a8:	302e3731 	eorcc	r3, lr, r1, lsr r7
  ac:	696c2f31 	stmdbvs	ip!, {r0, r4, r5, r8, r9, sl, fp, sp}^
  b0:	63636762 	cmnvs	r3, #25690112	@ 0x1880000
  b4:	6e6f632f 	cdpvs	3, 6, cr6, cr15, cr15, {1}
  b8:	2f676966 	svccs	0x00676966
  bc:	006d7261 	rsbeq	r7, sp, r1, ror #4
  c0:	62696c00 	rsbvs	r6, r9, #0, 24
  c4:	6e756631 	mrcvs	6, 3, r6, cr5, cr1, {1}
  c8:	532e7363 			@ <UNDEFINED> instruction: 0x532e7363
  cc:	00000100 	andeq	r0, r0, r0, lsl #2
  d0:	02050000 	andeq	r0, r5, #0
  d4:	87802548 	strhi	r2, [r0, r8, asr #10]
  d8:	0107cf03 	tsteq	r7, r3, lsl #30
  dc:	2f212121 	svccs	0x00212121
  e0:	30212f21 	eorcc	r2, r1, r1, lsr #30
  e4:	14029102 	strne	r9, [r2], #-258	@ 0xfffffefe
  e8:	21212221 			@ <UNDEFINED> instruction: 0x21212221
  ec:	2f4c2221 	svccs	0x004c2221
  f0:	207aeb03 	rsbscs	lr, sl, r3, lsl #22
  f4:	5805af03 	stmdapl	r5, {r0, r1, r8, r9, sl, fp, sp, pc}
  f8:	2f2f2121 	svccs	0x002f2121
  fc:	022f2f2f 	eoreq	r2, pc, #47, 30	@ 0xbc
 100:	01010001 	tsteq	r1, r1
 104:	00000111 	andeq	r0, r0, r1, lsl r1
 108:	00c70002 	sbceq	r0, r7, r2
 10c:	01020000 	mrseq	r0, (UNDEF: 2)
 110:	000d0efb 	strdeq	r0, [sp], -fp
 114:	01010101 	tsteq	r1, r1, lsl #2
 118:	01000000 	mrseq	r0, (UNDEF: 0)
 11c:	2f010000 	svccs	0x00010000
 120:	656d6f68 	strbvs	r6, [sp, #-3944]!	@ 0xfffff098
 124:	7763742f 	strbvc	r7, [r3, -pc, lsr #8]!
 128:	75622d67 	strbvc	r2, [r2, #-3431]!	@ 0xfffff299
 12c:	73646c69 	cmnvc	r4, #26880	@ 0x6900
 130:	6576616c 	ldrbvs	r6, [r6, #-364]!	@ 0xfffffe94
 134:	726f772f 	rsbvc	r7, pc, #12320768	@ 0xbc0000
 138:	6170736b 	cmnvs	r0, fp, ror #6
 13c:	742f6563 	strtvc	r6, [pc], #-1379	@ 144 <shift+0x144>
 140:	2d677763 	stclcs	7, cr7, [r7, #-396]!	@ 0xfffffe74
 144:	656b616d 	strbvs	r6, [fp, #-365]!	@ 0xfffffe93
 148:	6c65722d 	sfmvs	f7, 2, [r5], #-180	@ 0xffffff4c
 14c:	65736165 	ldrbvs	r6, [r3, #-357]!	@ 0xfffffe9b
 150:	62616c2f 	rsbvs	r6, r1, #12032	@ 0x2f00
 154:	642f6c65 	strtvs	r6, [pc], #-3173	@ 15c <shift+0x15c>
 158:	656b636f 	strbvs	r6, [fp, #-879]!	@ 0xfffffc91
 15c:	72742d72 	rsbsvc	r2, r4, #7296	@ 0x1c80
 160:	79747375 	ldmdbvc	r4!, {r0, r2, r4, r5, r6, r8, r9, ip, sp, lr}^
 164:	646d612d 	strbtvs	r6, [sp], #-301	@ 0xfffffed3
 168:	742d3436 	strtvc	r3, [sp], #-1078	@ 0xfffffbca
 16c:	2d677763 	stclcs	7, cr7, [r7, #-396]!	@ 0xfffffe74
 170:	6c697562 	cfstr64vs	mvdx7, [r9], #-392	@ 0xfffffe78
 174:	61742f64 	cmnvs	r4, r4, ror #30
 178:	74656772 	strbtvc	r6, [r5], #-1906	@ 0xfffff88e
 17c:	6d72612f 	ldfvse	f6, [r2, #-188]!	@ 0xffffff44
 180:	6e696c2d 	cdpvs	12, 6, cr6, cr9, cr13, {1}
 184:	672d7875 			@ <UNDEFINED> instruction: 0x672d7875
 188:	6165756e 	cmnvs	r5, lr, ror #10
 18c:	66686962 	strbtvs	r6, [r8], -r2, ror #18
 190:	616e732f 	cmnvs	lr, pc, lsr #6
 194:	6f687370 	svcvs	0x00687370
 198:	672f7374 			@ <UNDEFINED> instruction: 0x672f7374
 19c:	6c2d6363 	stcvs	3, cr6, [sp], #-396	@ 0xfffffe74
 1a0:	72616e69 	rsbvc	r6, r1, #1680	@ 0x690
 1a4:	2e342d6f 	cdpcs	13, 3, cr2, cr4, cr15, {3}
 1a8:	30322d39 	eorscc	r2, r2, r9, lsr sp
 1ac:	302e3731 	eorcc	r3, lr, r1, lsr r7
 1b0:	696c2f31 	stmdbvs	ip!, {r0, r4, r5, r8, r9, sl, fp, sp}^
 1b4:	63636762 	cmnvs	r3, #25690112	@ 0x1880000
 1b8:	6e6f632f 	cdpvs	3, 6, cr6, cr15, cr15, {1}
 1bc:	2f676966 	svccs	0x00676966
 1c0:	006d7261 	rsbeq	r7, sp, r1, ror #4
 1c4:	62696c00 	rsbvs	r6, r9, #0, 24
 1c8:	6e756631 	mrcvs	6, 3, r6, cr5, cr1, {1}
 1cc:	532e7363 			@ <UNDEFINED> instruction: 0x532e7363
 1d0:	00000100 	andeq	r0, r0, r0, lsl #2
 1d4:	02050000 	andeq	r0, r5, #0
 1d8:	878027c0 	strhi	r2, [r0, r0, asr #15]
 1dc:	0108f603 	tsteq	r8, r3, lsl #12	@ <UNPREDICTABLE>
 1e0:	212f3021 			@ <UNDEFINED> instruction: 0x212f3021
 1e4:	212f2121 			@ <UNDEFINED> instruction: 0x212f2121
 1e8:	2f212121 	svccs	0x00212121
 1ec:	91023021 	tstls	r2, r1, lsr #32
 1f0:	212f1402 			@ <UNDEFINED> instruction: 0x212f1402
 1f4:	212f2221 			@ <UNDEFINED> instruction: 0x212f2221
 1f8:	21212221 			@ <UNDEFINED> instruction: 0x21212221
 1fc:	222f2f21 	eorcs	r2, pc, #33, 30	@ 0x84
 200:	212f2f4c 			@ <UNDEFINED> instruction: 0x212f2f4c
 204:	79b10321 	ldmibvc	r1!, {r0, r5, r8, r9}
 208:	06e90320 	strbteq	r0, [r9], r0, lsr #6
 20c:	2f212190 	svccs	0x00212190
 210:	2f2f2f2f 	svccs	0x002f2f2f
 214:	01000102 	tsteq	r0, r2, lsl #2
 218:	0000fb01 	andeq	pc, r0, r1, lsl #22
 21c:	c3000200 	movwgt	r0, #512	@ 0x200
 220:	02000000 	andeq	r0, r0, #0
 224:	0d0efb01 	vstreq	d15, [lr, #-4]
 228:	01010100 	mrseq	r0, (UNDEF: 17)
 22c:	00000001 	andeq	r0, r0, r1
 230:	01000001 	tsteq	r0, r1
 234:	6d6f682f 	stclvs	8, cr6, [pc, #-188]!	@ 180 <shift+0x180>
 238:	63742f65 	cmnvs	r4, #404	@ 0x194
 23c:	622d6777 	eorvs	r6, sp, #31195136	@ 0x1dc0000
 240:	646c6975 	strbtvs	r6, [ip], #-2421	@ 0xfffff68b
 244:	76616c73 			@ <UNDEFINED> instruction: 0x76616c73
 248:	6f772f65 	svcvs	0x00772f65
 24c:	70736b72 	rsbsvc	r6, r3, r2, ror fp
 250:	2f656361 	svccs	0x00656361
 254:	67776374 			@ <UNDEFINED> instruction: 0x67776374
 258:	6b616d2d 	blvs	185b714 <shift+0x185b714>
 25c:	65722d65 	ldrbvs	r2, [r2, #-3429]!	@ 0xfffff29b
 260:	7361656c 	cmnvc	r1, #108, 10	@ 0x1b000000
 264:	616c2f65 	cmnvs	ip, r5, ror #30
 268:	2f6c6562 	svccs	0x006c6562
 26c:	6b636f64 	blvs	18dc004 <shift+0x18dc004>
 270:	742d7265 	strtvc	r7, [sp], #-613	@ 0xfffffd9b
 274:	74737572 	ldrbtvc	r7, [r3], #-1394	@ 0xfffffa8e
 278:	6d612d79 	stclvs	13, cr2, [r1, #-484]!	@ 0xfffffe1c
 27c:	2d343664 	ldccs	6, cr3, [r4, #-400]!	@ 0xfffffe70
 280:	67776374 			@ <UNDEFINED> instruction: 0x67776374
 284:	6975622d 	ldmdbvs	r5!, {r0, r2, r3, r5, r9, sp, lr}^
 288:	742f646c 	strtvc	r6, [pc], #-1132	@ 290 <shift+0x290>
 28c:	65677261 	strbvs	r7, [r7, #-609]!	@ 0xfffffd9f
 290:	72612f74 	rsbvc	r2, r1, #116, 30	@ 0x1d0
 294:	696c2d6d 	stmdbvs	ip!, {r0, r2, r3, r5, r6, r8, sl, fp, sp}^
 298:	2d78756e 	cfldr64cs	mvdx7, [r8, #-440]!	@ 0xfffffe48
 29c:	65756e67 	ldrbvs	r6, [r5, #-3687]!	@ 0xfffff199
 2a0:	68696261 	stmdavs	r9!, {r0, r5, r6, r9, sp, lr}^
 2a4:	6e732f66 	cdpvs	15, 7, cr2, cr3, cr6, {3}
 2a8:	68737061 	ldmdavs	r3!, {r0, r5, r6, ip, sp, lr}^
 2ac:	2f73746f 	svccs	0x0073746f
 2b0:	2d636367 	stclcs	3, cr6, [r3, #-412]!	@ 0xfffffe64
 2b4:	616e696c 	cmnvs	lr, ip, ror #18
 2b8:	342d6f72 	strtcc	r6, [sp], #-3954	@ 0xfffff08e
 2bc:	322d392e 	eorcc	r3, sp, #753664	@ 0xb8000
 2c0:	2e373130 	mrccs	1, 1, r3, cr7, cr0, {1}
 2c4:	6c2f3130 	stfvss	f3, [pc], #-192	@ 20c <shift+0x20c>
 2c8:	63676269 	cmnvs	r7, #-1879048186	@ 0x90000006
 2cc:	6f632f63 	svcvs	0x00632f63
 2d0:	6769666e 	strbvs	r6, [r9, -lr, ror #12]!
 2d4:	6d72612f 	ldfvse	f6, [r2, #-188]!	@ 0xffffff44
 2d8:	70620000 	rsbvc	r0, r2, r0
 2dc:	2e696261 	cdpcs	2, 6, cr6, cr9, cr1, {3}
 2e0:	00010053 	andeq	r0, r1, r3, asr r0
 2e4:	05000000 	streq	r0, [r0, #-0]
 2e8:	802a7002 	eorhi	r7, sl, r2
 2ec:	01b90387 			@ <UNDEFINED> instruction: 0x01b90387
 2f0:	4b140801 	blmi	5022fc <shift+0x5022fc>
 2f4:	22212121 	eorcs	r2, r1, #1073741832	@ 0x40000008
 2f8:	21245930 			@ <UNDEFINED> instruction: 0x21245930
 2fc:	3022212f 	eorcc	r2, r2, pc, lsr #2
 300:	212f2159 			@ <UNDEFINED> instruction: 0x212f2159
 304:	3021242f 	eorcc	r2, r1, pc, lsr #8
 308:	2f215930 	svccs	0x00215930
 30c:	2f302124 	svccs	0x00302124
 310:	022f2159 	eoreq	r2, pc, #1073741846	@ 0x40000016
 314:	01010001 	tsteq	r1, r1
 318:	000000dd 	ldrdeq	r0, [r0], -sp
 31c:	00c30002 	sbceq	r0, r3, r2
 320:	01020000 	mrseq	r0, (UNDEF: 2)
 324:	000d0efb 	strdeq	r0, [sp], -fp
 328:	01010101 	tsteq	r1, r1, lsl #2
 32c:	01000000 	mrseq	r0, (UNDEF: 0)
 330:	2f010000 	svccs	0x00010000
 334:	656d6f68 	strbvs	r6, [sp, #-3944]!	@ 0xfffff098
 338:	7763742f 	strbvc	r7, [r3, -pc, lsr #8]!
 33c:	75622d67 	strbvc	r2, [r2, #-3431]!	@ 0xfffff299
 340:	73646c69 	cmnvc	r4, #26880	@ 0x6900
 344:	6576616c 	ldrbvs	r6, [r6, #-364]!	@ 0xfffffe94
 348:	726f772f 	rsbvc	r7, pc, #12320768	@ 0xbc0000
 34c:	6170736b 	cmnvs	r0, fp, ror #6
 350:	742f6563 	strtvc	r6, [pc], #-1379	@ 358 <shift+0x358>
 354:	2d677763 	stclcs	7, cr7, [r7, #-396]!	@ 0xfffffe74
 358:	656b616d 	strbvs	r6, [fp, #-365]!	@ 0xfffffe93
 35c:	6c65722d 	sfmvs	f7, 2, [r5], #-180	@ 0xffffff4c
 360:	65736165 	ldrbvs	r6, [r3, #-357]!	@ 0xfffffe9b
 364:	62616c2f 	rsbvs	r6, r1, #12032	@ 0x2f00
 368:	642f6c65 	strtvs	r6, [pc], #-3173	@ 370 <shift+0x370>
 36c:	656b636f 	strbvs	r6, [fp, #-879]!	@ 0xfffffc91
 370:	72742d72 	rsbsvc	r2, r4, #7296	@ 0x1c80
 374:	79747375 	ldmdbvc	r4!, {r0, r2, r4, r5, r6, r8, r9, ip, sp, lr}^
 378:	646d612d 	strbtvs	r6, [sp], #-301	@ 0xfffffed3
 37c:	742d3436 	strtvc	r3, [sp], #-1078	@ 0xfffffbca
 380:	2d677763 	stclcs	7, cr7, [r7, #-396]!	@ 0xfffffe74
 384:	6c697562 	cfstr64vs	mvdx7, [r9], #-392	@ 0xfffffe78
 388:	61742f64 	cmnvs	r4, r4, ror #30
 38c:	74656772 	strbtvc	r6, [r5], #-1906	@ 0xfffff88e
 390:	6d72612f 	ldfvse	f6, [r2, #-188]!	@ 0xffffff44
 394:	6e696c2d 	cdpvs	12, 6, cr6, cr9, cr13, {1}
 398:	672d7875 			@ <UNDEFINED> instruction: 0x672d7875
 39c:	6165756e 	cmnvs	r5, lr, ror #10
 3a0:	66686962 	strbtvs	r6, [r8], -r2, ror #18
 3a4:	616e732f 	cmnvs	lr, pc, lsr #6
 3a8:	6f687370 	svcvs	0x00687370
 3ac:	672f7374 			@ <UNDEFINED> instruction: 0x672f7374
 3b0:	6c2d6363 	stcvs	3, cr6, [sp], #-396	@ 0xfffffe74
 3b4:	72616e69 	rsbvc	r6, r1, #1680	@ 0x690
 3b8:	2e342d6f 	cdpcs	13, 3, cr2, cr4, cr15, {3}
 3bc:	30322d39 	eorscc	r2, r2, r9, lsr sp
 3c0:	302e3731 	eorcc	r3, lr, r1, lsr r7
 3c4:	696c2f31 	stmdbvs	ip!, {r0, r4, r5, r8, r9, sl, fp, sp}^
 3c8:	63636762 	cmnvs	r3, #25690112	@ 0x1880000
 3cc:	6e6f632f 	cdpvs	3, 6, cr6, cr15, cr15, {1}
 3d0:	2f676966 	svccs	0x00676966
 3d4:	006d7261 	rsbeq	r7, sp, r1, ror #4
 3d8:	61706200 	cmnvs	r0, r0, lsl #4
 3dc:	532e6962 			@ <UNDEFINED> instruction: 0x532e6962
 3e0:	00000100 	andeq	r0, r0, r0, lsl #2
 3e4:	02050000 	andeq	r0, r5, #0
 3e8:	87802b10 	usada8hi	r0, r0, fp, r2
 3ec:	0101fd03 	tsteq	r1, r3, lsl #26	@ <UNPREDICTABLE>
 3f0:	592f4cbc 	stmdbpl	pc!, {r2, r3, r4, r5, r7, sl, fp, lr}	@ <UNPREDICTABLE>
 3f4:	01000102 	tsteq	r0, r2, lsl #2
 3f8:	0000e301 	andeq	lr, r0, r1, lsl #6
 3fc:	c7000200 	strgt	r0, [r0, -r0, lsl #4]
 400:	02000000 	andeq	r0, r0, #0
 404:	0d0efb01 	vstreq	d15, [lr, #-4]
 408:	01010100 	mrseq	r0, (UNDEF: 17)
 40c:	00000001 	andeq	r0, r0, r1
 410:	01000001 	tsteq	r0, r1
 414:	6d6f682f 	stclvs	8, cr6, [pc, #-188]!	@ 360 <shift+0x360>
 418:	63742f65 	cmnvs	r4, #404	@ 0x194
 41c:	622d6777 	eorvs	r6, sp, #31195136	@ 0x1dc0000
 420:	646c6975 	strbtvs	r6, [ip], #-2421	@ 0xfffff68b
 424:	76616c73 			@ <UNDEFINED> instruction: 0x76616c73
 428:	6f772f65 	svcvs	0x00772f65
 42c:	70736b72 	rsbsvc	r6, r3, r2, ror fp
 430:	2f656361 	svccs	0x00656361
 434:	67776374 			@ <UNDEFINED> instruction: 0x67776374
 438:	6b616d2d 	blvs	185b8f4 <shift+0x185b8f4>
 43c:	65722d65 	ldrbvs	r2, [r2, #-3429]!	@ 0xfffff29b
 440:	7361656c 	cmnvc	r1, #108, 10	@ 0x1b000000
 444:	616c2f65 	cmnvs	ip, r5, ror #30
 448:	2f6c6562 	svccs	0x006c6562
 44c:	6b636f64 	blvs	18dc1e4 <shift+0x18dc1e4>
 450:	742d7265 	strtvc	r7, [sp], #-613	@ 0xfffffd9b
 454:	74737572 	ldrbtvc	r7, [r3], #-1394	@ 0xfffffa8e
 458:	6d612d79 	stclvs	13, cr2, [r1, #-484]!	@ 0xfffffe1c
 45c:	2d343664 	ldccs	6, cr3, [r4, #-400]!	@ 0xfffffe70
 460:	67776374 			@ <UNDEFINED> instruction: 0x67776374
 464:	6975622d 	ldmdbvs	r5!, {r0, r2, r3, r5, r9, sp, lr}^
 468:	742f646c 	strtvc	r6, [pc], #-1132	@ 470 <shift+0x470>
 46c:	65677261 	strbvs	r7, [r7, #-609]!	@ 0xfffffd9f
 470:	72612f74 	rsbvc	r2, r1, #116, 30	@ 0x1d0
 474:	696c2d6d 	stmdbvs	ip!, {r0, r2, r3, r5, r6, r8, sl, fp, sp}^
 478:	2d78756e 	cfldr64cs	mvdx7, [r8, #-440]!	@ 0xfffffe48
 47c:	65756e67 	ldrbvs	r6, [r5, #-3687]!	@ 0xfffff199
 480:	68696261 	stmdavs	r9!, {r0, r5, r6, r9, sp, lr}^
 484:	6e732f66 	cdpvs	15, 7, cr2, cr3, cr6, {3}
 488:	68737061 	ldmdavs	r3!, {r0, r5, r6, ip, sp, lr}^
 48c:	2f73746f 	svccs	0x0073746f
 490:	2d636367 	stclcs	3, cr6, [r3, #-412]!	@ 0xfffffe64
 494:	616e696c 	cmnvs	lr, ip, ror #18
 498:	342d6f72 	strtcc	r6, [sp], #-3954	@ 0xfffff08e
 49c:	322d392e 	eorcc	r3, sp, #753664	@ 0xb8000
 4a0:	2e373130 	mrccs	1, 1, r3, cr7, cr0, {1}
 4a4:	6c2f3130 	stfvss	f3, [pc], #-192	@ 3ec <shift+0x3ec>
 4a8:	63676269 	cmnvs	r7, #-1879048186	@ 0x90000006
 4ac:	6f632f63 	svcvs	0x00632f63
 4b0:	6769666e 	strbvs	r6, [r9, -lr, ror #12]!
 4b4:	6d72612f 	ldfvse	f6, [r2, #-188]!	@ 0xffffff44
 4b8:	696c0000 	stmdbvs	ip!, {}^	@ <UNPREDICTABLE>
 4bc:	75663162 	strbvc	r3, [r6, #-354]!	@ 0xfffffe9e
 4c0:	2e73636e 	cdpcs	3, 7, cr6, cr3, cr14, {3}
 4c4:	00010053 	andeq	r0, r1, r3, asr r0
 4c8:	05000000 	streq	r0, [r0, #-0]
 4cc:	802b4002 	eorhi	r4, fp, r2
 4d0:	0ab00387 	beq	fec012f4 <__bss_end+0x773fd72c>
 4d4:	032f2101 			@ <UNDEFINED> instruction: 0x032f2101
 4d8:	022e77bb 	eoreq	r7, lr, #49020928	@ 0x2ec0000
 4dc:	01010001 	tsteq	r1, r1
 4e0:	00000113 	andeq	r0, r0, r3, lsl r1
 4e4:	00c70002 	sbceq	r0, r7, r2
 4e8:	01020000 	mrseq	r0, (UNDEF: 2)
 4ec:	000d0efb 	strdeq	r0, [sp], -fp
 4f0:	01010101 	tsteq	r1, r1, lsl #2
 4f4:	01000000 	mrseq	r0, (UNDEF: 0)
 4f8:	2f010000 	svccs	0x00010000
 4fc:	656d6f68 	strbvs	r6, [sp, #-3944]!	@ 0xfffff098
 500:	7763742f 	strbvc	r7, [r3, -pc, lsr #8]!
 504:	75622d67 	strbvc	r2, [r2, #-3431]!	@ 0xfffff299
 508:	73646c69 	cmnvc	r4, #26880	@ 0x6900
 50c:	6576616c 	ldrbvs	r6, [r6, #-364]!	@ 0xfffffe94
 510:	726f772f 	rsbvc	r7, pc, #12320768	@ 0xbc0000
 514:	6170736b 	cmnvs	r0, fp, ror #6
 518:	742f6563 	strtvc	r6, [pc], #-1379	@ 520 <shift+0x520>
 51c:	2d677763 	stclcs	7, cr7, [r7, #-396]!	@ 0xfffffe74
 520:	656b616d 	strbvs	r6, [fp, #-365]!	@ 0xfffffe93
 524:	6c65722d 	sfmvs	f7, 2, [r5], #-180	@ 0xffffff4c
 528:	65736165 	ldrbvs	r6, [r3, #-357]!	@ 0xfffffe9b
 52c:	62616c2f 	rsbvs	r6, r1, #12032	@ 0x2f00
 530:	642f6c65 	strtvs	r6, [pc], #-3173	@ 538 <shift+0x538>
 534:	656b636f 	strbvs	r6, [fp, #-879]!	@ 0xfffffc91
 538:	72742d72 	rsbsvc	r2, r4, #7296	@ 0x1c80
 53c:	79747375 	ldmdbvc	r4!, {r0, r2, r4, r5, r6, r8, r9, ip, sp, lr}^
 540:	646d612d 	strbtvs	r6, [sp], #-301	@ 0xfffffed3
 544:	742d3436 	strtvc	r3, [sp], #-1078	@ 0xfffffbca
 548:	2d677763 	stclcs	7, cr7, [r7, #-396]!	@ 0xfffffe74
 54c:	6c697562 	cfstr64vs	mvdx7, [r9], #-392	@ 0xfffffe78
 550:	61742f64 	cmnvs	r4, r4, ror #30
 554:	74656772 	strbtvc	r6, [r5], #-1906	@ 0xfffff88e
 558:	6d72612f 	ldfvse	f6, [r2, #-188]!	@ 0xffffff44
 55c:	6e696c2d 	cdpvs	12, 6, cr6, cr9, cr13, {1}
 560:	672d7875 			@ <UNDEFINED> instruction: 0x672d7875
 564:	6165756e 	cmnvs	r5, lr, ror #10
 568:	66686962 	strbtvs	r6, [r8], -r2, ror #18
 56c:	616e732f 	cmnvs	lr, pc, lsr #6
 570:	6f687370 	svcvs	0x00687370
 574:	672f7374 			@ <UNDEFINED> instruction: 0x672f7374
 578:	6c2d6363 	stcvs	3, cr6, [sp], #-396	@ 0xfffffe74
 57c:	72616e69 	rsbvc	r6, r1, #1680	@ 0x690
 580:	2e342d6f 	cdpcs	13, 3, cr2, cr4, cr15, {3}
 584:	30322d39 	eorscc	r2, r2, r9, lsr sp
 588:	302e3731 	eorcc	r3, lr, r1, lsr r7
 58c:	696c2f31 	stmdbvs	ip!, {r0, r4, r5, r8, r9, sl, fp, sp}^
 590:	63636762 	cmnvs	r3, #25690112	@ 0x1880000
 594:	696c0000 	stmdbvs	ip!, {}^	@ <UNPREDICTABLE>
 598:	63636762 	cmnvs	r3, #25690112	@ 0x1880000
 59c:	00632e32 	rsbeq	r2, r3, r2, lsr lr
 5a0:	6c000001 	stcvs	0, cr0, [r0], {1}
 5a4:	63676269 	cmnvs	r7, #-1879048186	@ 0x90000006
 5a8:	682e3263 	stmdavs	lr!, {r0, r1, r5, r6, r9, ip, sp}
 5ac:	00000100 	andeq	r0, r0, r0, lsl #2
 5b0:	02050000 	andeq	r0, r5, #0
 5b4:	87802b4c 	strhi	r2, [r0, ip, asr #22]
 5b8:	0107b003 	tsteq	r7, r3
 5bc:	200c032e 	andcs	r0, ip, lr, lsr #6
 5c0:	03207403 			@ <UNDEFINED> instruction: 0x03207403
 5c4:	74033c0c 	strvc	r3, [r3], #-3084	@ 0xfffff3f4
 5c8:	0b03212e 	bleq	c8a88 <shift+0xc8a88>
 5cc:	4c4b223c 	sfmmi	f2, 2, [fp], {60}	@ 0x3c
 5d0:	6803f921 	stmdavs	r3, {r0, r5, r8, fp, ip, sp, lr, pc}
 5d4:	3c18033c 	ldccc	3, cr0, [r8], {60}	@ 0x3c
 5d8:	81212d23 			@ <UNDEFINED> instruction: 0x81212d23
 5dc:	86523032 			@ <UNDEFINED> instruction: 0x86523032
 5e0:	33304d29 	teqcc	r0, #2624	@ 0xa40
 5e4:	214921b9 	strhcs	r2, [r9, #-25]	@ 0xffffffe7
 5e8:	21320821 	teqcs	r2, r1, lsr #16
 5ec:	2e550330 	mrccs	3, 2, r0, cr5, cr0, {1}
 5f0:	05024b49 	streq	r4, [r2, #-2889]	@ 0xfffff4b7
 5f4:	Address 0x5f4 is out of bounds.


Disassembly of section .debug_info:

00000000 <.debug_info>:
   0:	000001bb 			@ <UNDEFINED> instruction: 0x000001bb
   4:	00000002 	andeq	r0, r0, r2
   8:	01040000 	mrseq	r0, (UNDEF: 4)
   c:	00000000 	andeq	r0, r0, r0
  10:	87802548 	strhi	r2, [r0, r8, asr #10]
  14:	878027be 			@ <UNDEFINED> instruction: 0x878027be
  18:	6d6f682f 	stclvs	8, cr6, [pc, #-188]!	@ ffffff64 <__bss_end+0x787fc39c>
  1c:	63742f65 	cmnvs	r4, #404	@ 0x194
  20:	622d6777 	eorvs	r6, sp, #31195136	@ 0x1dc0000
  24:	646c6975 	strbtvs	r6, [ip], #-2421	@ 0xfffff68b
  28:	76616c73 			@ <UNDEFINED> instruction: 0x76616c73
  2c:	6f772f65 	svcvs	0x00772f65
  30:	70736b72 	rsbsvc	r6, r3, r2, ror fp
  34:	2f656361 	svccs	0x00656361
  38:	67776374 			@ <UNDEFINED> instruction: 0x67776374
  3c:	6b616d2d 	blvs	185b4f8 <shift+0x185b4f8>
  40:	65722d65 	ldrbvs	r2, [r2, #-3429]!	@ 0xfffff29b
  44:	7361656c 	cmnvc	r1, #108, 10	@ 0x1b000000
  48:	616c2f65 	cmnvs	ip, r5, ror #30
  4c:	2f6c6562 	svccs	0x006c6562
  50:	6b636f64 	blvs	18dbde8 <shift+0x18dbde8>
  54:	742d7265 	strtvc	r7, [sp], #-613	@ 0xfffffd9b
  58:	74737572 	ldrbtvc	r7, [r3], #-1394	@ 0xfffffa8e
  5c:	6d612d79 	stclvs	13, cr2, [r1, #-484]!	@ 0xfffffe1c
  60:	2d343664 	ldccs	6, cr3, [r4, #-400]!	@ 0xfffffe70
  64:	67776374 			@ <UNDEFINED> instruction: 0x67776374
  68:	6975622d 	ldmdbvs	r5!, {r0, r2, r3, r5, r9, sp, lr}^
  6c:	742f646c 	strtvc	r6, [pc], #-1132	@ 74 <shift+0x74>
  70:	65677261 	strbvs	r7, [r7, #-609]!	@ 0xfffffd9f
  74:	72612f74 	rsbvc	r2, r1, #116, 30	@ 0x1d0
  78:	696c2d6d 	stmdbvs	ip!, {r0, r2, r3, r5, r6, r8, sl, fp, sp}^
  7c:	2d78756e 	cfldr64cs	mvdx7, [r8, #-440]!	@ 0xfffffe48
  80:	65756e67 	ldrbvs	r6, [r5, #-3687]!	@ 0xfffff199
  84:	68696261 	stmdavs	r9!, {r0, r5, r6, r9, sp, lr}^
  88:	6e732f66 	cdpvs	15, 7, cr2, cr3, cr6, {3}
  8c:	68737061 	ldmdavs	r3!, {r0, r5, r6, ip, sp, lr}^
  90:	2f73746f 	svccs	0x0073746f
  94:	2d636367 	stclcs	3, cr6, [r3, #-412]!	@ 0xfffffe64
  98:	616e696c 	cmnvs	lr, ip, ror #18
  9c:	342d6f72 	strtcc	r6, [sp], #-3954	@ 0xfffff08e
  a0:	322d392e 	eorcc	r3, sp, #753664	@ 0xb8000
  a4:	2e373130 	mrccs	1, 1, r3, cr7, cr0, {1}
  a8:	6c2f3130 	stfvss	f3, [pc], #-192	@ fffffff0 <__bss_end+0x787fc428>
  ac:	63676269 	cmnvs	r7, #-1879048186	@ 0x90000006
  b0:	6f632f63 	svcvs	0x00632f63
  b4:	6769666e 	strbvs	r6, [r9, -lr, ror #12]!
  b8:	6d72612f 	ldfvse	f6, [r2, #-188]!	@ 0xffffff44
  bc:	62696c2f 	rsbvs	r6, r9, #12032	@ 0x2f00
  c0:	6e756631 	mrcvs	6, 3, r6, cr5, cr1, {1}
  c4:	532e7363 			@ <UNDEFINED> instruction: 0x532e7363
  c8:	6f682f00 	svcvs	0x00682f00
  cc:	742f656d 	strtvc	r6, [pc], #-1389	@ d4 <shift+0xd4>
  d0:	2d677763 	stclcs	7, cr7, [r7, #-396]!	@ 0xfffffe74
  d4:	6c697562 	cfstr64vs	mvdx7, [r9], #-392	@ 0xfffffe78
  d8:	616c7364 	cmnvs	ip, r4, ror #6
  dc:	772f6576 			@ <UNDEFINED> instruction: 0x772f6576
  e0:	736b726f 	cmnvc	fp, #-268435450	@ 0xf0000006
  e4:	65636170 	strbvs	r6, [r3, #-368]!	@ 0xfffffe90
  e8:	7763742f 	strbvc	r7, [r3, -pc, lsr #8]!
  ec:	616d2d67 	cmnvs	sp, r7, ror #26
  f0:	722d656b 	eorvc	r6, sp, #448790528	@ 0x1ac00000
  f4:	61656c65 	cmnvs	r5, r5, ror #24
  f8:	6c2f6573 	cfstr32vs	mvfx6, [pc], #-460	@ ffffff34 <__bss_end+0x787fc36c>
  fc:	6c656261 	sfmvs	f6, 2, [r5], #-388	@ 0xfffffe7c
 100:	636f642f 	cmnvs	pc, #788529152	@ 0x2f000000
 104:	2d72656b 	cfldr64cs	mvdx6, [r2, #-428]!	@ 0xfffffe54
 108:	73757274 	cmnvc	r5, #116, 4	@ 0x40000007
 10c:	612d7974 			@ <UNDEFINED> instruction: 0x612d7974
 110:	3436646d 	ldrtcc	r6, [r6], #-1133	@ 0xfffffb93
 114:	7763742d 	strbvc	r7, [r3, -sp, lsr #8]!
 118:	75622d67 	strbvc	r2, [r2, #-3431]!	@ 0xfffff299
 11c:	2f646c69 	svccs	0x00646c69
 120:	67726174 			@ <UNDEFINED> instruction: 0x67726174
 124:	612f7465 			@ <UNDEFINED> instruction: 0x612f7465
 128:	6c2d6d72 	stcvs	13, cr6, [sp], #-456	@ 0xfffffe38
 12c:	78756e69 	ldmdavc	r5!, {r0, r3, r5, r6, r9, sl, fp, sp, lr}^
 130:	756e672d 	strbvc	r6, [lr, #-1837]!	@ 0xfffff8d3
 134:	69626165 	stmdbvs	r2!, {r0, r2, r5, r6, r8, sp, lr}^
 138:	5f2f6668 	svcpl	0x002f6668
 13c:	6c697562 	cfstr64vs	mvdx7, [r9], #-392	@ 0xfffffe78
 140:	75622f64 	strbvc	r2, [r2, #-3940]!	@ 0xfffff09c
 144:	73646c69 	cmnvc	r4, #26880	@ 0x6900
 148:	3638782f 	ldrtcc	r7, [r8], -pc, lsr #16
 14c:	2d34365f 	ldccs	6, cr3, [r4, #-380]!	@ 0xfffffe84
 150:	6e6b6e75 	mcrvs	14, 3, r6, cr11, cr5, {3}
 154:	2d6e776f 	stclcs	7, cr7, [lr, #-444]!	@ 0xfffffe44
 158:	756e696c 	strbvc	r6, [lr, #-2412]!	@ 0xfffff694
 15c:	6e672d78 	mcrvs	13, 3, r2, cr7, cr8, {3}
 160:	72612f75 	rsbvc	r2, r1, #468	@ 0x1d4
 164:	696c2d6d 	stmdbvs	ip!, {r0, r2, r3, r5, r6, r8, sl, fp, sp}^
 168:	2d78756e 	cfldr64cs	mvdx7, [r8, #-440]!	@ 0xfffffe48
 16c:	65756e67 	ldrbvs	r6, [r5, #-3687]!	@ 0xfffff199
 170:	68696261 	stmdavs	r9!, {r0, r5, r6, r9, sp, lr}^
 174:	63672f66 	cmnvs	r7, #408	@ 0x198
 178:	696c2d63 	stmdbvs	ip!, {r0, r1, r5, r6, r8, sl, fp, sp}^
 17c:	6f72616e 	svcvs	0x0072616e
 180:	392e342d 	stmdbcc	lr!, {r0, r2, r3, r5, sl, ip, sp}
 184:	3130322d 	teqcc	r0, sp, lsr #4
 188:	31302e37 	teqcc	r0, r7, lsr lr
 18c:	6174732d 	cmnvs	r4, sp, lsr #6
 190:	2f326567 	svccs	0x00326567
 194:	2d6d7261 	sfmcs	f7, 2, [sp, #-388]!	@ 0xfffffe7c
 198:	756e696c 	strbvc	r6, [lr, #-2412]!	@ 0xfffff694
 19c:	6e672d78 	mcrvs	13, 3, r2, cr7, cr8, {3}
 1a0:	62616575 	rsbvs	r6, r1, #490733568	@ 0x1d400000
 1a4:	2f666869 	svccs	0x00666869
 1a8:	6762696c 	strbvs	r6, [r2, -ip, ror #18]!
 1ac:	47006363 	strmi	r6, [r0, -r3, ror #6]
 1b0:	4120554e 			@ <UNDEFINED> instruction: 0x4120554e
 1b4:	2e322053 	mrccs	0, 1, r2, cr2, cr3, {2}
 1b8:	302e3432 	eorcc	r3, lr, r2, lsr r4
 1bc:	bb800100 	bllt	fe0005c4 <__bss_end+0x767fc9fc>
 1c0:	02000001 	andeq	r0, r0, #1
 1c4:	00001400 	andeq	r1, r0, r0, lsl #8
 1c8:	04010400 	streq	r0, [r1], #-1024	@ 0xfffffc00
 1cc:	c0000001 	andgt	r0, r0, r1
 1d0:	6e878027 	cdpvs	0, 8, cr8, cr7, cr7, {1}
 1d4:	2f87802a 	svccs	0x0087802a
 1d8:	656d6f68 	strbvs	r6, [sp, #-3944]!	@ 0xfffff098
 1dc:	7763742f 	strbvc	r7, [r3, -pc, lsr #8]!
 1e0:	75622d67 	strbvc	r2, [r2, #-3431]!	@ 0xfffff299
 1e4:	73646c69 	cmnvc	r4, #26880	@ 0x6900
 1e8:	6576616c 	ldrbvs	r6, [r6, #-364]!	@ 0xfffffe94
 1ec:	726f772f 	rsbvc	r7, pc, #12320768	@ 0xbc0000
 1f0:	6170736b 	cmnvs	r0, fp, ror #6
 1f4:	742f6563 	strtvc	r6, [pc], #-1379	@ 1fc <shift+0x1fc>
 1f8:	2d677763 	stclcs	7, cr7, [r7, #-396]!	@ 0xfffffe74
 1fc:	656b616d 	strbvs	r6, [fp, #-365]!	@ 0xfffffe93
 200:	6c65722d 	sfmvs	f7, 2, [r5], #-180	@ 0xffffff4c
 204:	65736165 	ldrbvs	r6, [r3, #-357]!	@ 0xfffffe9b
 208:	62616c2f 	rsbvs	r6, r1, #12032	@ 0x2f00
 20c:	642f6c65 	strtvs	r6, [pc], #-3173	@ 214 <shift+0x214>
 210:	656b636f 	strbvs	r6, [fp, #-879]!	@ 0xfffffc91
 214:	72742d72 	rsbsvc	r2, r4, #7296	@ 0x1c80
 218:	79747375 	ldmdbvc	r4!, {r0, r2, r4, r5, r6, r8, r9, ip, sp, lr}^
 21c:	646d612d 	strbtvs	r6, [sp], #-301	@ 0xfffffed3
 220:	742d3436 	strtvc	r3, [sp], #-1078	@ 0xfffffbca
 224:	2d677763 	stclcs	7, cr7, [r7, #-396]!	@ 0xfffffe74
 228:	6c697562 	cfstr64vs	mvdx7, [r9], #-392	@ 0xfffffe78
 22c:	61742f64 	cmnvs	r4, r4, ror #30
 230:	74656772 	strbtvc	r6, [r5], #-1906	@ 0xfffff88e
 234:	6d72612f 	ldfvse	f6, [r2, #-188]!	@ 0xffffff44
 238:	6e696c2d 	cdpvs	12, 6, cr6, cr9, cr13, {1}
 23c:	672d7875 			@ <UNDEFINED> instruction: 0x672d7875
 240:	6165756e 	cmnvs	r5, lr, ror #10
 244:	66686962 	strbtvs	r6, [r8], -r2, ror #18
 248:	616e732f 	cmnvs	lr, pc, lsr #6
 24c:	6f687370 	svcvs	0x00687370
 250:	672f7374 			@ <UNDEFINED> instruction: 0x672f7374
 254:	6c2d6363 	stcvs	3, cr6, [sp], #-396	@ 0xfffffe74
 258:	72616e69 	rsbvc	r6, r1, #1680	@ 0x690
 25c:	2e342d6f 	cdpcs	13, 3, cr2, cr4, cr15, {3}
 260:	30322d39 	eorscc	r2, r2, r9, lsr sp
 264:	302e3731 	eorcc	r3, lr, r1, lsr r7
 268:	696c2f31 	stmdbvs	ip!, {r0, r4, r5, r8, r9, sl, fp, sp}^
 26c:	63636762 	cmnvs	r3, #25690112	@ 0x1880000
 270:	6e6f632f 	cdpvs	3, 6, cr6, cr15, cr15, {1}
 274:	2f676966 	svccs	0x00676966
 278:	2f6d7261 	svccs	0x006d7261
 27c:	3162696c 	cmncc	r2, ip, ror #18
 280:	636e7566 	cmnvs	lr, #427819008	@ 0x19800000
 284:	00532e73 	subseq	r2, r3, r3, ror lr
 288:	6d6f682f 	stclvs	8, cr6, [pc, #-188]!	@ 1d4 <shift+0x1d4>
 28c:	63742f65 	cmnvs	r4, #404	@ 0x194
 290:	622d6777 	eorvs	r6, sp, #31195136	@ 0x1dc0000
 294:	646c6975 	strbtvs	r6, [ip], #-2421	@ 0xfffff68b
 298:	76616c73 			@ <UNDEFINED> instruction: 0x76616c73
 29c:	6f772f65 	svcvs	0x00772f65
 2a0:	70736b72 	rsbsvc	r6, r3, r2, ror fp
 2a4:	2f656361 	svccs	0x00656361
 2a8:	67776374 			@ <UNDEFINED> instruction: 0x67776374
 2ac:	6b616d2d 	blvs	185b768 <shift+0x185b768>
 2b0:	65722d65 	ldrbvs	r2, [r2, #-3429]!	@ 0xfffff29b
 2b4:	7361656c 	cmnvc	r1, #108, 10	@ 0x1b000000
 2b8:	616c2f65 	cmnvs	ip, r5, ror #30
 2bc:	2f6c6562 	svccs	0x006c6562
 2c0:	6b636f64 	blvs	18dc058 <shift+0x18dc058>
 2c4:	742d7265 	strtvc	r7, [sp], #-613	@ 0xfffffd9b
 2c8:	74737572 	ldrbtvc	r7, [r3], #-1394	@ 0xfffffa8e
 2cc:	6d612d79 	stclvs	13, cr2, [r1, #-484]!	@ 0xfffffe1c
 2d0:	2d343664 	ldccs	6, cr3, [r4, #-400]!	@ 0xfffffe70
 2d4:	67776374 			@ <UNDEFINED> instruction: 0x67776374
 2d8:	6975622d 	ldmdbvs	r5!, {r0, r2, r3, r5, r9, sp, lr}^
 2dc:	742f646c 	strtvc	r6, [pc], #-1132	@ 2e4 <shift+0x2e4>
 2e0:	65677261 	strbvs	r7, [r7, #-609]!	@ 0xfffffd9f
 2e4:	72612f74 	rsbvc	r2, r1, #116, 30	@ 0x1d0
 2e8:	696c2d6d 	stmdbvs	ip!, {r0, r2, r3, r5, r6, r8, sl, fp, sp}^
 2ec:	2d78756e 	cfldr64cs	mvdx7, [r8, #-440]!	@ 0xfffffe48
 2f0:	65756e67 	ldrbvs	r6, [r5, #-3687]!	@ 0xfffff199
 2f4:	68696261 	stmdavs	r9!, {r0, r5, r6, r9, sp, lr}^
 2f8:	625f2f66 	subsvs	r2, pc, #408	@ 0x198
 2fc:	646c6975 	strbtvs	r6, [ip], #-2421	@ 0xfffff68b
 300:	6975622f 	ldmdbvs	r5!, {r0, r1, r2, r3, r5, r9, sp, lr}^
 304:	2f73646c 	svccs	0x0073646c
 308:	5f363878 	svcpl	0x00363878
 30c:	752d3436 	strvc	r3, [sp, #-1078]!	@ 0xfffffbca
 310:	6f6e6b6e 	svcvs	0x006e6b6e
 314:	6c2d6e77 	stcvs	14, cr6, [sp], #-476	@ 0xfffffe24
 318:	78756e69 	ldmdavc	r5!, {r0, r3, r5, r6, r9, sl, fp, sp, lr}^
 31c:	756e672d 	strbvc	r6, [lr, #-1837]!	@ 0xfffff8d3
 320:	6d72612f 	ldfvse	f6, [r2, #-188]!	@ 0xffffff44
 324:	6e696c2d 	cdpvs	12, 6, cr6, cr9, cr13, {1}
 328:	672d7875 			@ <UNDEFINED> instruction: 0x672d7875
 32c:	6165756e 	cmnvs	r5, lr, ror #10
 330:	66686962 	strbtvs	r6, [r8], -r2, ror #18
 334:	6363672f 	cmnvs	r3, #12320768	@ 0xbc0000
 338:	6e696c2d 	cdpvs	12, 6, cr6, cr9, cr13, {1}
 33c:	2d6f7261 	sfmcs	f7, 2, [pc, #-388]!	@ 1c0 <shift+0x1c0>
 340:	2d392e34 	ldccs	14, cr2, [r9, #-208]!	@ 0xffffff30
 344:	37313032 			@ <UNDEFINED> instruction: 0x37313032
 348:	2d31302e 	ldccs	0, cr3, [r1, #-184]!	@ 0xffffff48
 34c:	67617473 			@ <UNDEFINED> instruction: 0x67617473
 350:	612f3265 			@ <UNDEFINED> instruction: 0x612f3265
 354:	6c2d6d72 	stcvs	13, cr6, [sp], #-456	@ 0xfffffe38
 358:	78756e69 	ldmdavc	r5!, {r0, r3, r5, r6, r9, sl, fp, sp, lr}^
 35c:	756e672d 	strbvc	r6, [lr, #-1837]!	@ 0xfffff8d3
 360:	69626165 	stmdbvs	r2!, {r0, r2, r5, r6, r8, sp, lr}^
 364:	6c2f6668 	stcvs	6, cr6, [pc], #-416	@ 1cc <shift+0x1cc>
 368:	63676269 	cmnvs	r7, #-1879048186	@ 0x90000006
 36c:	4e470063 	cdpmi	0, 4, cr0, cr7, cr3, {3}
 370:	53412055 	movtpl	r2, #4181	@ 0x1055
 374:	322e3220 	eorcc	r3, lr, #32, 4
 378:	00302e34 	eorseq	r2, r0, r4, lsr lr
 37c:	01b78001 			@ <UNDEFINED> instruction: 0x01b78001
 380:	00020000 	andeq	r0, r2, r0
 384:	00000028 	andeq	r0, r0, r8, lsr #32
 388:	02190104 	andseq	r0, r9, #4, 2
 38c:	2a700000 	bcs	1c00394 <shift+0x1c00394>
 390:	2b108780 	blcs	422198 <shift+0x422198>
 394:	682f8780 	stmdavs	pc!, {r7, r8, r9, sl, pc}	@ <UNPREDICTABLE>
 398:	2f656d6f 	svccs	0x00656d6f
 39c:	67776374 			@ <UNDEFINED> instruction: 0x67776374
 3a0:	6975622d 	ldmdbvs	r5!, {r0, r2, r3, r5, r9, sp, lr}^
 3a4:	6c73646c 	cfldrdvs	mvd6, [r3], #-432	@ 0xfffffe50
 3a8:	2f657661 	svccs	0x00657661
 3ac:	6b726f77 	blvs	1c9c190 <shift+0x1c9c190>
 3b0:	63617073 	cmnvs	r1, #115	@ 0x73
 3b4:	63742f65 	cmnvs	r4, #404	@ 0x194
 3b8:	6d2d6777 	stcvs	7, cr6, [sp, #-476]!	@ 0xfffffe24
 3bc:	2d656b61 	fstmdbxcs	r5!, {d22-d69}	@ Deprecated
 3c0:	656c6572 	strbvs	r6, [ip, #-1394]!	@ 0xfffffa8e
 3c4:	2f657361 	svccs	0x00657361
 3c8:	6562616c 	strbvs	r6, [r2, #-364]!	@ 0xfffffe94
 3cc:	6f642f6c 	svcvs	0x00642f6c
 3d0:	72656b63 	rsbvc	r6, r5, #101376	@ 0x18c00
 3d4:	7572742d 	ldrbvc	r7, [r2, #-1069]!	@ 0xfffffbd3
 3d8:	2d797473 	cfldrdcs	mvd7, [r9, #-460]!	@ 0xfffffe34
 3dc:	36646d61 	strbtcc	r6, [r4], -r1, ror #26
 3e0:	63742d34 	cmnvs	r4, #52, 26	@ 0xd00
 3e4:	622d6777 	eorvs	r6, sp, #31195136	@ 0x1dc0000
 3e8:	646c6975 	strbtvs	r6, [ip], #-2421	@ 0xfffff68b
 3ec:	7261742f 	rsbvc	r7, r1, #788529152	@ 0x2f000000
 3f0:	2f746567 	svccs	0x00746567
 3f4:	2d6d7261 	sfmcs	f7, 2, [sp, #-388]!	@ 0xfffffe7c
 3f8:	756e696c 	strbvc	r6, [lr, #-2412]!	@ 0xfffff694
 3fc:	6e672d78 	mcrvs	13, 3, r2, cr7, cr8, {3}
 400:	62616575 	rsbvs	r6, r1, #490733568	@ 0x1d400000
 404:	2f666869 	svccs	0x00666869
 408:	70616e73 	rsbvc	r6, r1, r3, ror lr
 40c:	746f6873 	strbtvc	r6, [pc], #-2163	@ 414 <shift+0x414>
 410:	63672f73 	cmnvs	r7, #460	@ 0x1cc
 414:	696c2d63 	stmdbvs	ip!, {r0, r1, r5, r6, r8, sl, fp, sp}^
 418:	6f72616e 	svcvs	0x0072616e
 41c:	392e342d 	stmdbcc	lr!, {r0, r2, r3, r5, sl, ip, sp}
 420:	3130322d 	teqcc	r0, sp, lsr #4
 424:	31302e37 	teqcc	r0, r7, lsr lr
 428:	62696c2f 	rsbvs	r6, r9, #12032	@ 0x2f00
 42c:	2f636367 	svccs	0x00636367
 430:	666e6f63 	strbtvs	r6, [lr], -r3, ror #30
 434:	612f6769 			@ <UNDEFINED> instruction: 0x612f6769
 438:	622f6d72 	eorvs	r6, pc, #7296	@ 0x1c80
 43c:	69626170 	stmdbvs	r2!, {r4, r5, r6, r8, sp, lr}^
 440:	2f00532e 	svccs	0x0000532e
 444:	656d6f68 	strbvs	r6, [sp, #-3944]!	@ 0xfffff098
 448:	7763742f 	strbvc	r7, [r3, -pc, lsr #8]!
 44c:	75622d67 	strbvc	r2, [r2, #-3431]!	@ 0xfffff299
 450:	73646c69 	cmnvc	r4, #26880	@ 0x6900
 454:	6576616c 	ldrbvs	r6, [r6, #-364]!	@ 0xfffffe94
 458:	726f772f 	rsbvc	r7, pc, #12320768	@ 0xbc0000
 45c:	6170736b 	cmnvs	r0, fp, ror #6
 460:	742f6563 	strtvc	r6, [pc], #-1379	@ 468 <shift+0x468>
 464:	2d677763 	stclcs	7, cr7, [r7, #-396]!	@ 0xfffffe74
 468:	656b616d 	strbvs	r6, [fp, #-365]!	@ 0xfffffe93
 46c:	6c65722d 	sfmvs	f7, 2, [r5], #-180	@ 0xffffff4c
 470:	65736165 	ldrbvs	r6, [r3, #-357]!	@ 0xfffffe9b
 474:	62616c2f 	rsbvs	r6, r1, #12032	@ 0x2f00
 478:	642f6c65 	strtvs	r6, [pc], #-3173	@ 480 <shift+0x480>
 47c:	656b636f 	strbvs	r6, [fp, #-879]!	@ 0xfffffc91
 480:	72742d72 	rsbsvc	r2, r4, #7296	@ 0x1c80
 484:	79747375 	ldmdbvc	r4!, {r0, r2, r4, r5, r6, r8, r9, ip, sp, lr}^
 488:	646d612d 	strbtvs	r6, [sp], #-301	@ 0xfffffed3
 48c:	742d3436 	strtvc	r3, [sp], #-1078	@ 0xfffffbca
 490:	2d677763 	stclcs	7, cr7, [r7, #-396]!	@ 0xfffffe74
 494:	6c697562 	cfstr64vs	mvdx7, [r9], #-392	@ 0xfffffe78
 498:	61742f64 	cmnvs	r4, r4, ror #30
 49c:	74656772 	strbtvc	r6, [r5], #-1906	@ 0xfffff88e
 4a0:	6d72612f 	ldfvse	f6, [r2, #-188]!	@ 0xffffff44
 4a4:	6e696c2d 	cdpvs	12, 6, cr6, cr9, cr13, {1}
 4a8:	672d7875 			@ <UNDEFINED> instruction: 0x672d7875
 4ac:	6165756e 	cmnvs	r5, lr, ror #10
 4b0:	66686962 	strbtvs	r6, [r8], -r2, ror #18
 4b4:	75625f2f 	strbvc	r5, [r2, #-3887]!	@ 0xfffff0d1
 4b8:	2f646c69 	svccs	0x00646c69
 4bc:	6c697562 	cfstr64vs	mvdx7, [r9], #-392	@ 0xfffffe78
 4c0:	782f7364 	stmdavc	pc!, {r2, r5, r6, r8, r9, ip, sp, lr}	@ <UNPREDICTABLE>
 4c4:	365f3638 			@ <UNDEFINED> instruction: 0x365f3638
 4c8:	6e752d34 	mrcvs	13, 3, r2, cr5, cr4, {1}
 4cc:	776f6e6b 	strbvc	r6, [pc, -fp, ror #28]!
 4d0:	696c2d6e 	stmdbvs	ip!, {r1, r2, r3, r5, r6, r8, sl, fp, sp}^
 4d4:	2d78756e 	cfldr64cs	mvdx7, [r8, #-440]!	@ 0xfffffe48
 4d8:	2f756e67 	svccs	0x00756e67
 4dc:	2d6d7261 	sfmcs	f7, 2, [sp, #-388]!	@ 0xfffffe7c
 4e0:	756e696c 	strbvc	r6, [lr, #-2412]!	@ 0xfffff694
 4e4:	6e672d78 	mcrvs	13, 3, r2, cr7, cr8, {3}
 4e8:	62616575 	rsbvs	r6, r1, #490733568	@ 0x1d400000
 4ec:	2f666869 	svccs	0x00666869
 4f0:	2d636367 	stclcs	3, cr6, [r3, #-412]!	@ 0xfffffe64
 4f4:	616e696c 	cmnvs	lr, ip, ror #18
 4f8:	342d6f72 	strtcc	r6, [sp], #-3954	@ 0xfffff08e
 4fc:	322d392e 	eorcc	r3, sp, #753664	@ 0xb8000
 500:	2e373130 	mrccs	1, 1, r3, cr7, cr0, {1}
 504:	732d3130 			@ <UNDEFINED> instruction: 0x732d3130
 508:	65676174 	strbvs	r6, [r7, #-372]!	@ 0xfffffe8c
 50c:	72612f32 	rsbvc	r2, r1, #50, 30	@ 0xc8
 510:	696c2d6d 	stmdbvs	ip!, {r0, r2, r3, r5, r6, r8, sl, fp, sp}^
 514:	2d78756e 	cfldr64cs	mvdx7, [r8, #-440]!	@ 0xfffffe48
 518:	65756e67 	ldrbvs	r6, [r5, #-3687]!	@ 0xfffff199
 51c:	68696261 	stmdavs	r9!, {r0, r5, r6, r9, sp, lr}^
 520:	696c2f66 	stmdbvs	ip!, {r1, r2, r5, r6, r8, r9, sl, fp, sp}^
 524:	63636762 	cmnvs	r3, #25690112	@ 0x1880000
 528:	554e4700 	strbpl	r4, [lr, #-1792]	@ 0xfffff900
 52c:	20534120 	subscs	r4, r3, r0, lsr #2
 530:	34322e32 	ldrtcc	r2, [r2], #-3634	@ 0xfffff1ce
 534:	0100302e 	tsteq	r0, lr, lsr #32
 538:	0001b780 	andeq	fp, r1, r0, lsl #15
 53c:	3c000200 	sfmcc	f0, 4, [r0], {-0}
 540:	04000000 	streq	r0, [r0], #-0
 544:	00031801 	andeq	r1, r3, r1, lsl #16
 548:	802b1000 	eorhi	r1, fp, r0
 54c:	802b4087 	eorhi	r4, fp, r7, lsl #1
 550:	6f682f87 	svcvs	0x00682f87
 554:	742f656d 	strtvc	r6, [pc], #-1389	@ 55c <shift+0x55c>
 558:	2d677763 	stclcs	7, cr7, [r7, #-396]!	@ 0xfffffe74
 55c:	6c697562 	cfstr64vs	mvdx7, [r9], #-392	@ 0xfffffe78
 560:	616c7364 	cmnvs	ip, r4, ror #6
 564:	772f6576 			@ <UNDEFINED> instruction: 0x772f6576
 568:	736b726f 	cmnvc	fp, #-268435450	@ 0xf0000006
 56c:	65636170 	strbvs	r6, [r3, #-368]!	@ 0xfffffe90
 570:	7763742f 	strbvc	r7, [r3, -pc, lsr #8]!
 574:	616d2d67 	cmnvs	sp, r7, ror #26
 578:	722d656b 	eorvc	r6, sp, #448790528	@ 0x1ac00000
 57c:	61656c65 	cmnvs	r5, r5, ror #24
 580:	6c2f6573 	cfstr32vs	mvfx6, [pc], #-460	@ 3bc <shift+0x3bc>
 584:	6c656261 	sfmvs	f6, 2, [r5], #-388	@ 0xfffffe7c
 588:	636f642f 	cmnvs	pc, #788529152	@ 0x2f000000
 58c:	2d72656b 	cfldr64cs	mvdx6, [r2, #-428]!	@ 0xfffffe54
 590:	73757274 	cmnvc	r5, #116, 4	@ 0x40000007
 594:	612d7974 			@ <UNDEFINED> instruction: 0x612d7974
 598:	3436646d 	ldrtcc	r6, [r6], #-1133	@ 0xfffffb93
 59c:	7763742d 	strbvc	r7, [r3, -sp, lsr #8]!
 5a0:	75622d67 	strbvc	r2, [r2, #-3431]!	@ 0xfffff299
 5a4:	2f646c69 	svccs	0x00646c69
 5a8:	67726174 			@ <UNDEFINED> instruction: 0x67726174
 5ac:	612f7465 			@ <UNDEFINED> instruction: 0x612f7465
 5b0:	6c2d6d72 	stcvs	13, cr6, [sp], #-456	@ 0xfffffe38
 5b4:	78756e69 	ldmdavc	r5!, {r0, r3, r5, r6, r9, sl, fp, sp, lr}^
 5b8:	756e672d 	strbvc	r6, [lr, #-1837]!	@ 0xfffff8d3
 5bc:	69626165 	stmdbvs	r2!, {r0, r2, r5, r6, r8, sp, lr}^
 5c0:	732f6668 			@ <UNDEFINED> instruction: 0x732f6668
 5c4:	7370616e 	cmnvc	r0, #-2147483621	@ 0x8000001b
 5c8:	73746f68 	cmnvc	r4, #104, 30	@ 0x1a0
 5cc:	6363672f 	cmnvs	r3, #12320768	@ 0xbc0000
 5d0:	6e696c2d 	cdpvs	12, 6, cr6, cr9, cr13, {1}
 5d4:	2d6f7261 	sfmcs	f7, 2, [pc, #-388]!	@ 458 <shift+0x458>
 5d8:	2d392e34 	ldccs	14, cr2, [r9, #-208]!	@ 0xffffff30
 5dc:	37313032 			@ <UNDEFINED> instruction: 0x37313032
 5e0:	2f31302e 	svccs	0x0031302e
 5e4:	6762696c 	strbvs	r6, [r2, -ip, ror #18]!
 5e8:	632f6363 			@ <UNDEFINED> instruction: 0x632f6363
 5ec:	69666e6f 	stmdbvs	r6!, {r0, r1, r2, r3, r5, r6, r9, sl, fp, sp, lr}^
 5f0:	72612f67 	rsbvc	r2, r1, #412	@ 0x19c
 5f4:	70622f6d 	rsbvc	r2, r2, sp, ror #30
 5f8:	2e696261 	cdpcs	2, 6, cr6, cr9, cr1, {3}
 5fc:	682f0053 	stmdavs	pc!, {r0, r1, r4, r6}	@ <UNPREDICTABLE>
 600:	2f656d6f 	svccs	0x00656d6f
 604:	67776374 			@ <UNDEFINED> instruction: 0x67776374
 608:	6975622d 	ldmdbvs	r5!, {r0, r2, r3, r5, r9, sp, lr}^
 60c:	6c73646c 	cfldrdvs	mvd6, [r3], #-432	@ 0xfffffe50
 610:	2f657661 	svccs	0x00657661
 614:	6b726f77 	blvs	1c9c3f8 <shift+0x1c9c3f8>
 618:	63617073 	cmnvs	r1, #115	@ 0x73
 61c:	63742f65 	cmnvs	r4, #404	@ 0x194
 620:	6d2d6777 	stcvs	7, cr6, [sp, #-476]!	@ 0xfffffe24
 624:	2d656b61 	fstmdbxcs	r5!, {d22-d69}	@ Deprecated
 628:	656c6572 	strbvs	r6, [ip, #-1394]!	@ 0xfffffa8e
 62c:	2f657361 	svccs	0x00657361
 630:	6562616c 	strbvs	r6, [r2, #-364]!	@ 0xfffffe94
 634:	6f642f6c 	svcvs	0x00642f6c
 638:	72656b63 	rsbvc	r6, r5, #101376	@ 0x18c00
 63c:	7572742d 	ldrbvc	r7, [r2, #-1069]!	@ 0xfffffbd3
 640:	2d797473 	cfldrdcs	mvd7, [r9, #-460]!	@ 0xfffffe34
 644:	36646d61 	strbtcc	r6, [r4], -r1, ror #26
 648:	63742d34 	cmnvs	r4, #52, 26	@ 0xd00
 64c:	622d6777 	eorvs	r6, sp, #31195136	@ 0x1dc0000
 650:	646c6975 	strbtvs	r6, [ip], #-2421	@ 0xfffff68b
 654:	7261742f 	rsbvc	r7, r1, #788529152	@ 0x2f000000
 658:	2f746567 	svccs	0x00746567
 65c:	2d6d7261 	sfmcs	f7, 2, [sp, #-388]!	@ 0xfffffe7c
 660:	756e696c 	strbvc	r6, [lr, #-2412]!	@ 0xfffff694
 664:	6e672d78 	mcrvs	13, 3, r2, cr7, cr8, {3}
 668:	62616575 	rsbvs	r6, r1, #490733568	@ 0x1d400000
 66c:	2f666869 	svccs	0x00666869
 670:	6975625f 	ldmdbvs	r5!, {r0, r1, r2, r3, r4, r6, r9, sp, lr}^
 674:	622f646c 	eorvs	r6, pc, #108, 8	@ 0x6c000000
 678:	646c6975 	strbtvs	r6, [ip], #-2421	@ 0xfffff68b
 67c:	38782f73 	ldmdacc	r8!, {r0, r1, r4, r5, r6, r8, r9, sl, fp, sp}^
 680:	34365f36 	ldrtcc	r5, [r6], #-3894	@ 0xfffff0ca
 684:	6b6e752d 	blvs	1b9db40 <shift+0x1b9db40>
 688:	6e776f6e 	cdpvs	15, 7, cr6, cr7, cr14, {3}
 68c:	6e696c2d 	cdpvs	12, 6, cr6, cr9, cr13, {1}
 690:	672d7875 			@ <UNDEFINED> instruction: 0x672d7875
 694:	612f756e 			@ <UNDEFINED> instruction: 0x612f756e
 698:	6c2d6d72 	stcvs	13, cr6, [sp], #-456	@ 0xfffffe38
 69c:	78756e69 	ldmdavc	r5!, {r0, r3, r5, r6, r9, sl, fp, sp, lr}^
 6a0:	756e672d 	strbvc	r6, [lr, #-1837]!	@ 0xfffff8d3
 6a4:	69626165 	stmdbvs	r2!, {r0, r2, r5, r6, r8, sp, lr}^
 6a8:	672f6668 	strvs	r6, [pc, -r8, ror #12]!
 6ac:	6c2d6363 	stcvs	3, cr6, [sp], #-396	@ 0xfffffe74
 6b0:	72616e69 	rsbvc	r6, r1, #1680	@ 0x690
 6b4:	2e342d6f 	cdpcs	13, 3, cr2, cr4, cr15, {3}
 6b8:	30322d39 	eorscc	r2, r2, r9, lsr sp
 6bc:	302e3731 	eorcc	r3, lr, r1, lsr r7
 6c0:	74732d31 	ldrbtvc	r2, [r3], #-3377	@ 0xfffff2cf
 6c4:	32656761 	rsbcc	r6, r5, #25427968	@ 0x1840000
 6c8:	6d72612f 	ldfvse	f6, [r2, #-188]!	@ 0xffffff44
 6cc:	6e696c2d 	cdpvs	12, 6, cr6, cr9, cr13, {1}
 6d0:	672d7875 			@ <UNDEFINED> instruction: 0x672d7875
 6d4:	6165756e 	cmnvs	r5, lr, ror #10
 6d8:	66686962 	strbtvs	r6, [r8], -r2, ror #18
 6dc:	62696c2f 	rsbvs	r6, r9, #12032	@ 0x2f00
 6e0:	00636367 	rsbeq	r6, r3, r7, ror #6
 6e4:	20554e47 	subscs	r4, r5, r7, asr #28
 6e8:	32205341 	eorcc	r5, r0, #67108865	@ 0x4000001
 6ec:	2e34322e 	cdpcs	2, 3, cr3, cr4, cr14, {1}
 6f0:	80010030 	andhi	r0, r1, r0, lsr r0
 6f4:	000001bb 			@ <UNDEFINED> instruction: 0x000001bb
 6f8:	00500002 	subseq	r0, r0, r2
 6fc:	01040000 	mrseq	r0, (UNDEF: 4)
 700:	000003f9 	strdeq	r0, [r0], -r9
 704:	87802b40 	strhi	r2, [r0, r0, asr #22]
 708:	87802b4c 	strhi	r2, [r0, ip, asr #22]
 70c:	6d6f682f 	stclvs	8, cr6, [pc, #-188]!	@ 658 <shift+0x658>
 710:	63742f65 	cmnvs	r4, #404	@ 0x194
 714:	622d6777 	eorvs	r6, sp, #31195136	@ 0x1dc0000
 718:	646c6975 	strbtvs	r6, [ip], #-2421	@ 0xfffff68b
 71c:	76616c73 			@ <UNDEFINED> instruction: 0x76616c73
 720:	6f772f65 	svcvs	0x00772f65
 724:	70736b72 	rsbsvc	r6, r3, r2, ror fp
 728:	2f656361 	svccs	0x00656361
 72c:	67776374 			@ <UNDEFINED> instruction: 0x67776374
 730:	6b616d2d 	blvs	185bbec <shift+0x185bbec>
 734:	65722d65 	ldrbvs	r2, [r2, #-3429]!	@ 0xfffff29b
 738:	7361656c 	cmnvc	r1, #108, 10	@ 0x1b000000
 73c:	616c2f65 	cmnvs	ip, r5, ror #30
 740:	2f6c6562 	svccs	0x006c6562
 744:	6b636f64 	blvs	18dc4dc <shift+0x18dc4dc>
 748:	742d7265 	strtvc	r7, [sp], #-613	@ 0xfffffd9b
 74c:	74737572 	ldrbtvc	r7, [r3], #-1394	@ 0xfffffa8e
 750:	6d612d79 	stclvs	13, cr2, [r1, #-484]!	@ 0xfffffe1c
 754:	2d343664 	ldccs	6, cr3, [r4, #-400]!	@ 0xfffffe70
 758:	67776374 			@ <UNDEFINED> instruction: 0x67776374
 75c:	6975622d 	ldmdbvs	r5!, {r0, r2, r3, r5, r9, sp, lr}^
 760:	742f646c 	strtvc	r6, [pc], #-1132	@ 768 <shift+0x768>
 764:	65677261 	strbvs	r7, [r7, #-609]!	@ 0xfffffd9f
 768:	72612f74 	rsbvc	r2, r1, #116, 30	@ 0x1d0
 76c:	696c2d6d 	stmdbvs	ip!, {r0, r2, r3, r5, r6, r8, sl, fp, sp}^
 770:	2d78756e 	cfldr64cs	mvdx7, [r8, #-440]!	@ 0xfffffe48
 774:	65756e67 	ldrbvs	r6, [r5, #-3687]!	@ 0xfffff199
 778:	68696261 	stmdavs	r9!, {r0, r5, r6, r9, sp, lr}^
 77c:	6e732f66 	cdpvs	15, 7, cr2, cr3, cr6, {3}
 780:	68737061 	ldmdavs	r3!, {r0, r5, r6, ip, sp, lr}^
 784:	2f73746f 	svccs	0x0073746f
 788:	2d636367 	stclcs	3, cr6, [r3, #-412]!	@ 0xfffffe64
 78c:	616e696c 	cmnvs	lr, ip, ror #18
 790:	342d6f72 	strtcc	r6, [sp], #-3954	@ 0xfffff08e
 794:	322d392e 	eorcc	r3, sp, #753664	@ 0xb8000
 798:	2e373130 	mrccs	1, 1, r3, cr7, cr0, {1}
 79c:	6c2f3130 	stfvss	f3, [pc], #-192	@ 6e4 <shift+0x6e4>
 7a0:	63676269 	cmnvs	r7, #-1879048186	@ 0x90000006
 7a4:	6f632f63 	svcvs	0x00632f63
 7a8:	6769666e 	strbvs	r6, [r9, -lr, ror #12]!
 7ac:	6d72612f 	ldfvse	f6, [r2, #-188]!	@ 0xffffff44
 7b0:	62696c2f 	rsbvs	r6, r9, #12032	@ 0x2f00
 7b4:	6e756631 	mrcvs	6, 3, r6, cr5, cr1, {1}
 7b8:	532e7363 			@ <UNDEFINED> instruction: 0x532e7363
 7bc:	6f682f00 	svcvs	0x00682f00
 7c0:	742f656d 	strtvc	r6, [pc], #-1389	@ 7c8 <shift+0x7c8>
 7c4:	2d677763 	stclcs	7, cr7, [r7, #-396]!	@ 0xfffffe74
 7c8:	6c697562 	cfstr64vs	mvdx7, [r9], #-392	@ 0xfffffe78
 7cc:	616c7364 	cmnvs	ip, r4, ror #6
 7d0:	772f6576 			@ <UNDEFINED> instruction: 0x772f6576
 7d4:	736b726f 	cmnvc	fp, #-268435450	@ 0xf0000006
 7d8:	65636170 	strbvs	r6, [r3, #-368]!	@ 0xfffffe90
 7dc:	7763742f 	strbvc	r7, [r3, -pc, lsr #8]!
 7e0:	616d2d67 	cmnvs	sp, r7, ror #26
 7e4:	722d656b 	eorvc	r6, sp, #448790528	@ 0x1ac00000
 7e8:	61656c65 	cmnvs	r5, r5, ror #24
 7ec:	6c2f6573 	cfstr32vs	mvfx6, [pc], #-460	@ 628 <shift+0x628>
 7f0:	6c656261 	sfmvs	f6, 2, [r5], #-388	@ 0xfffffe7c
 7f4:	636f642f 	cmnvs	pc, #788529152	@ 0x2f000000
 7f8:	2d72656b 	cfldr64cs	mvdx6, [r2, #-428]!	@ 0xfffffe54
 7fc:	73757274 	cmnvc	r5, #116, 4	@ 0x40000007
 800:	612d7974 			@ <UNDEFINED> instruction: 0x612d7974
 804:	3436646d 	ldrtcc	r6, [r6], #-1133	@ 0xfffffb93
 808:	7763742d 	strbvc	r7, [r3, -sp, lsr #8]!
 80c:	75622d67 	strbvc	r2, [r2, #-3431]!	@ 0xfffff299
 810:	2f646c69 	svccs	0x00646c69
 814:	67726174 			@ <UNDEFINED> instruction: 0x67726174
 818:	612f7465 			@ <UNDEFINED> instruction: 0x612f7465
 81c:	6c2d6d72 	stcvs	13, cr6, [sp], #-456	@ 0xfffffe38
 820:	78756e69 	ldmdavc	r5!, {r0, r3, r5, r6, r9, sl, fp, sp, lr}^
 824:	756e672d 	strbvc	r6, [lr, #-1837]!	@ 0xfffff8d3
 828:	69626165 	stmdbvs	r2!, {r0, r2, r5, r6, r8, sp, lr}^
 82c:	5f2f6668 	svcpl	0x002f6668
 830:	6c697562 	cfstr64vs	mvdx7, [r9], #-392	@ 0xfffffe78
 834:	75622f64 	strbvc	r2, [r2, #-3940]!	@ 0xfffff09c
 838:	73646c69 	cmnvc	r4, #26880	@ 0x6900
 83c:	3638782f 	ldrtcc	r7, [r8], -pc, lsr #16
 840:	2d34365f 	ldccs	6, cr3, [r4, #-380]!	@ 0xfffffe84
 844:	6e6b6e75 	mcrvs	14, 3, r6, cr11, cr5, {3}
 848:	2d6e776f 	stclcs	7, cr7, [lr, #-444]!	@ 0xfffffe44
 84c:	756e696c 	strbvc	r6, [lr, #-2412]!	@ 0xfffff694
 850:	6e672d78 	mcrvs	13, 3, r2, cr7, cr8, {3}
 854:	72612f75 	rsbvc	r2, r1, #468	@ 0x1d4
 858:	696c2d6d 	stmdbvs	ip!, {r0, r2, r3, r5, r6, r8, sl, fp, sp}^
 85c:	2d78756e 	cfldr64cs	mvdx7, [r8, #-440]!	@ 0xfffffe48
 860:	65756e67 	ldrbvs	r6, [r5, #-3687]!	@ 0xfffff199
 864:	68696261 	stmdavs	r9!, {r0, r5, r6, r9, sp, lr}^
 868:	63672f66 	cmnvs	r7, #408	@ 0x198
 86c:	696c2d63 	stmdbvs	ip!, {r0, r1, r5, r6, r8, sl, fp, sp}^
 870:	6f72616e 	svcvs	0x0072616e
 874:	392e342d 	stmdbcc	lr!, {r0, r2, r3, r5, sl, ip, sp}
 878:	3130322d 	teqcc	r0, sp, lsr #4
 87c:	31302e37 	teqcc	r0, r7, lsr lr
 880:	6174732d 	cmnvs	r4, sp, lsr #6
 884:	2f326567 	svccs	0x00326567
 888:	2d6d7261 	sfmcs	f7, 2, [sp, #-388]!	@ 0xfffffe7c
 88c:	756e696c 	strbvc	r6, [lr, #-2412]!	@ 0xfffff694
 890:	6e672d78 	mcrvs	13, 3, r2, cr7, cr8, {3}
 894:	62616575 	rsbvs	r6, r1, #490733568	@ 0x1d400000
 898:	2f666869 	svccs	0x00666869
 89c:	6762696c 	strbvs	r6, [r2, -ip, ror #18]!
 8a0:	47006363 	strmi	r6, [r0, -r3, ror #6]
 8a4:	4120554e 			@ <UNDEFINED> instruction: 0x4120554e
 8a8:	2e322053 	mrccs	0, 1, r2, cr2, cr3, {2}
 8ac:	302e3432 	eorcc	r3, lr, r2, lsr r4
 8b0:	5a800100 	bpl	fe000cb8 <__bss_end+0x767fd0f0>
 8b4:	04000001 	streq	r0, [r0], #-1
 8b8:	00006400 	andeq	r6, r0, r0, lsl #8
 8bc:	2b010400 	blcs	418c4 <shift+0x418c4>
 8c0:	01000001 	tsteq	r0, r1
 8c4:	0000024f 	andeq	r0, r0, pc, asr #4
 8c8:	0000000d 	andeq	r0, r0, sp
 8cc:	87802b4c 	strhi	r2, [r0, ip, asr #22]
 8d0:	00000116 	andeq	r0, r0, r6, lsl r1
 8d4:	000004e0 	andeq	r0, r0, r0, ror #9
 8d8:	f3070802 	vsub.i8	d0, d7, d2
 8dc:	03000000 	movweq	r0, #0
 8e0:	6e690504 	cdpvs	5, 6, cr0, cr9, cr4, {0}
 8e4:	04020074 	streq	r0, [r2], #-116	@ 0xffffff8c
 8e8:	0000fd07 	andeq	pc, r0, r7, lsl #26
 8ec:	08010200 	stmdaeq	r1, {r9}
 8f0:	0000010a 	andeq	r0, r0, sl, lsl #2
 8f4:	18070202 	stmdane	r7, {r1, r9}
 8f8:	02000001 	andeq	r0, r0, #1
 8fc:	00f80704 	rscseq	r0, r8, r4, lsl #14
 900:	01020000 	mrseq	r0, (UNDEF: 2)
 904:	00010c06 	andeq	r0, r1, r6, lsl #24
 908:	05020200 	streq	r0, [r2, #-512]	@ 0xfffffe00
 90c:	00000236 	andeq	r0, r0, r6, lsr r2
 910:	20050802 	andcs	r0, r5, r2, lsl #16
 914:	02000002 	andeq	r0, r0, #2
 918:	02250504 	eoreq	r0, r5, #4, 10	@ 0x1000000
 91c:	04020000 	streq	r0, [r2], #-0
 920:	00021707 	andeq	r1, r2, r7, lsl #14
 924:	08010200 	stmdaeq	r1, {r9}
 928:	00000113 	andeq	r0, r0, r3, lsl r1
 92c:	00022e04 	andeq	r2, r2, r4, lsl #28
 930:	33820200 	orrcc	r0, r2, #0, 4
 934:	04000000 	streq	r0, [r0], #-0
 938:	00000201 	andeq	r0, r0, r1, lsl #4
 93c:	00258602 	eoreq	r8, r5, r2, lsl #12
 940:	04020000 	streq	r0, [r2], #-0
 944:	00021104 	andeq	r1, r2, r4, lsl #2
 948:	03080200 	movweq	r0, #33280	@ 0x8200
 94c:	00000209 	andeq	r0, r0, r9, lsl #4
 950:	48040802 	stmdami	r4, {r1, fp}
 954:	02000002 	andeq	r0, r0, #2
 958:	02400310 	subeq	r0, r0, #16, 6	@ 0x40000000
 95c:	00050000 	andeq	r0, r5, r0
 960:	01000000 	mrseq	r0, (UNDEF: 0)
 964:	008403b0 			@ <UNDEFINED> instruction: 0x008403b0
 968:	2b4c0000 	blcs	1300970 <shift+0x1300970>
 96c:	01168780 	tsteq	r6, r0, lsl #15
 970:	9c010000 	stcls	0, cr0, [r1], {-0}
 974:	00000157 	andeq	r0, r0, r7, asr r1
 978:	01006e06 	tsteq	r0, r6, lsl #28
 97c:	008403b0 			@ <UNDEFINED> instruction: 0x008403b0
 980:	00000000 	andeq	r0, r0, r0
 984:	64060000 	strvs	r0, [r6], #-0
 988:	03b00100 	movseq	r0, #0, 2
 98c:	00000084 	andeq	r0, r0, r4, lsl #1
 990:	00000028 	andeq	r0, r0, r8, lsr #32
 994:	00707206 	rsbseq	r7, r0, r6, lsl #4
 998:	5703b001 	strpl	fp, [r3, -r1]
 99c:	50000001 	andpl	r0, r0, r1
 9a0:	07000000 	streq	r0, [r0, -r0]
 9a4:	b2010071 	andlt	r0, r1, #113	@ 0x71
 9a8:	00008403 	andeq	r8, r0, r3, lsl #8
 9ac:	00007000 	andeq	r7, r0, r0
 9b0:	00720700 	rsbseq	r0, r2, r0, lsl #14
 9b4:	8403b201 	strhi	fp, [r3], #-513	@ 0xfffffdff
 9b8:	d0000000 	andle	r0, r0, r0
 9bc:	07000000 	streq	r0, [r0, -r0]
 9c0:	b2010079 	andlt	r0, r1, #121	@ 0x79
 9c4:	00008403 	andeq	r8, r0, r3, lsl #8
 9c8:	00012800 	andeq	r2, r1, r0, lsl #16
 9cc:	7a6c0700 	bvc	1b025d4 <shift+0x1b025d4>
 9d0:	b3010031 	movwlt	r0, #4145	@ 0x1031
 9d4:	00007903 	andeq	r7, r0, r3, lsl #18
 9d8:	00015000 	andeq	r5, r1, r0
 9dc:	7a6c0700 	bvc	1b025e4 <shift+0x1b025e4>
 9e0:	b3010032 	movwlt	r0, #4146	@ 0x1032
 9e4:	00007903 	andeq	r7, r0, r3, lsl #18
 9e8:	00016300 	andeq	r6, r1, r0, lsl #6
 9ec:	00690700 	rsbeq	r0, r9, r0, lsl #14
 9f0:	7903b301 	stmdbvc	r3, {r0, r8, r9, ip, sp, pc}
 9f4:	76000000 	strvc	r0, [r0], -r0
 9f8:	07000001 	streq	r0, [r0, -r1]
 9fc:	b301006b 	movwlt	r0, #4203	@ 0x106b
 a00:	00007903 	andeq	r7, r0, r3, lsl #18
 a04:	0001b900 	andeq	fp, r1, r0, lsl #18
 a08:	04080000 	streq	r0, [r8], #-0
 a0c:	00000084 	andeq	r0, r0, r4, lsl #1
	...

Disassembly of section .debug_abbrev:

00000000 <.debug_abbrev>:
   0:	10001101 	andne	r1, r0, r1, lsl #2
   4:	12011106 	andne	r1, r1, #-2147483647	@ 0x80000001
   8:	1b080301 	blne	200c14 <shift+0x200c14>
   c:	13082508 	movwne	r2, #34056	@ 0x8508
  10:	00000005 	andeq	r0, r0, r5
  14:	10001101 	andne	r1, r0, r1, lsl #2
  18:	12011106 	andne	r1, r1, #-2147483647	@ 0x80000001
  1c:	1b080301 	blne	200c28 <shift+0x200c28>
  20:	13082508 	movwne	r2, #34056	@ 0x8508
  24:	00000005 	andeq	r0, r0, r5
  28:	10001101 	andne	r1, r0, r1, lsl #2
  2c:	12011106 	andne	r1, r1, #-2147483647	@ 0x80000001
  30:	1b080301 	blne	200c3c <shift+0x200c3c>
  34:	13082508 	movwne	r2, #34056	@ 0x8508
  38:	00000005 	andeq	r0, r0, r5
  3c:	10001101 	andne	r1, r0, r1, lsl #2
  40:	12011106 	andne	r1, r1, #-2147483647	@ 0x80000001
  44:	1b080301 	blne	200c50 <shift+0x200c50>
  48:	13082508 	movwne	r2, #34056	@ 0x8508
  4c:	00000005 	andeq	r0, r0, r5
  50:	10001101 	andne	r1, r0, r1, lsl #2
  54:	12011106 	andne	r1, r1, #-2147483647	@ 0x80000001
  58:	1b080301 	blne	200c64 <shift+0x200c64>
  5c:	13082508 	movwne	r2, #34056	@ 0x8508
  60:	00000005 	andeq	r0, r0, r5
  64:	25011101 	strcs	r1, [r1, #-257]	@ 0xfffffeff
  68:	030b130e 	movweq	r1, #45838	@ 0xb30e
  6c:	110e1b0e 	tstne	lr, lr, lsl #22
  70:	10061201 	andne	r1, r6, r1, lsl #4
  74:	02000017 	andeq	r0, r0, #23
  78:	0b0b0024 	bleq	2c0110 <shift+0x2c0110>
  7c:	0e030b3e 	vmoveq.16	d3[0], r0
  80:	24030000 	strcs	r0, [r3], #-0
  84:	3e0b0b00 	vmlacc.f64	d0, d11, d0
  88:	0008030b 	andeq	r0, r8, fp, lsl #6
  8c:	00160400 	andseq	r0, r6, r0, lsl #8
  90:	0b3a0e03 	bleq	e838a4 <shift+0xe838a4>
  94:	13490b3b 	movtne	r0, #39739	@ 0x9b3b
  98:	2e050000 	cdpcs	0, 0, cr0, cr5, cr0, {0}
  9c:	03193f01 	tsteq	r9, #1, 30
  a0:	3b0b3a0e 	blcc	2ce8e0 <shift+0x2ce8e0>
  a4:	49192705 	ldmdbmi	r9, {r0, r2, r8, r9, sl, sp}
  a8:	12011113 	andne	r1, r1, #-1073741820	@ 0xc0000004
  ac:	97184006 	ldrls	r4, [r8, -r6]
  b0:	13011942 	movwne	r1, #6466	@ 0x1942
  b4:	05060000 	streq	r0, [r6, #-0]
  b8:	3a080300 	bcc	200cc0 <shift+0x200cc0>
  bc:	49053b0b 	stmdbmi	r5, {r0, r1, r3, r8, r9, fp, ip, sp}
  c0:	00170213 	andseq	r0, r7, r3, lsl r2
  c4:	00340700 	eorseq	r0, r4, r0, lsl #14
  c8:	0b3a0803 	bleq	e820dc <shift+0xe820dc>
  cc:	1349053b 	movtne	r0, #38203	@ 0x953b
  d0:	00001702 	andeq	r1, r0, r2, lsl #14
  d4:	0b000f08 	bleq	3cfc <shift+0x3cfc>
  d8:	0013490b 	andseq	r4, r3, fp, lsl #18
	...

Disassembly of section .debug_aranges:

00000000 <.debug_aranges>:
   0:	0000001c 	andeq	r0, r0, ip, lsl r0
   4:	00000002 	andeq	r0, r0, r2
   8:	00040000 	andeq	r0, r4, r0
   c:	00000000 	andeq	r0, r0, r0
  10:	87802548 	strhi	r2, [r0, r8, asr #10]
  14:	00000276 	andeq	r0, r0, r6, ror r2
	...
  20:	0000001c 	andeq	r0, r0, ip, lsl r0
  24:	01bf0002 			@ <UNDEFINED> instruction: 0x01bf0002
  28:	00040000 	andeq	r0, r4, r0
  2c:	00000000 	andeq	r0, r0, r0
  30:	878027c0 	strhi	r2, [r0, r0, asr #15]
  34:	000002ae 	andeq	r0, r0, lr, lsr #5
	...
  40:	0000001c 	andeq	r0, r0, ip, lsl r0
  44:	037e0002 	cmneq	lr, #2
  48:	00040000 	andeq	r0, r4, r0
  4c:	00000000 	andeq	r0, r0, r0
  50:	87802a70 			@ <UNDEFINED> instruction: 0x87802a70
  54:	000000a0 	andeq	r0, r0, r0, lsr #1
	...
  60:	0000001c 	andeq	r0, r0, ip, lsl r0
  64:	05390002 	ldreq	r0, [r9, #-2]!
  68:	00040000 	andeq	r0, r4, r0
  6c:	00000000 	andeq	r0, r0, r0
  70:	87802b10 	usada8hi	r0, r0, fp, r2
  74:	00000030 	andeq	r0, r0, r0, lsr r0
	...
  80:	0000001c 	andeq	r0, r0, ip, lsl r0
  84:	06f40002 	ldrbteq	r0, [r4], r2
  88:	00040000 	andeq	r0, r4, r0
  8c:	00000000 	andeq	r0, r0, r0
  90:	87802b40 	strhi	r2, [r0, r0, asr #22]
  94:	0000000c 	andeq	r0, r0, ip
	...
  a0:	0000001c 	andeq	r0, r0, ip, lsl r0
  a4:	08b30002 	ldmeq	r3!, {r1}
  a8:	00040000 	andeq	r0, r4, r0
  ac:	00000000 	andeq	r0, r0, r0
  b0:	87802b4c 	strhi	r2, [r0, ip, asr #22]
  b4:	00000116 	andeq	r0, r0, r6, lsl r1
	...

Disassembly of section .debug_loc:

00000000 <.debug_loc>:
   0:	00000000 	andeq	r0, r0, r0
   4:	0000000c 	andeq	r0, r0, ip
   8:	93500006 	cmpls	r0, #6
   c:	04935104 	ldreq	r5, [r3], #260	@ 0x104
  10:	0000000c 	andeq	r0, r0, ip
  14:	00000116 	andeq	r0, r0, r6, lsl r1
  18:	03f30006 	mvnseq	r0, #6
  1c:	9f2500f5 	svcls	0x002500f5
	...
  2c:	00000014 	andeq	r0, r0, r4, lsl r0
  30:	93520006 	cmpls	r2, #6
  34:	04935304 	ldreq	r5, [r3], #772	@ 0x304
  38:	00000014 	andeq	r0, r0, r4, lsl r0
  3c:	00000116 	andeq	r0, r0, r6, lsl r1
  40:	03f30006 	mvnseq	r0, #6
  44:	9f2502f5 	svcls	0x002502f5
	...
  54:	000000fc 	strdeq	r0, [r0], -ip
  58:	00910002 	addseq	r0, r1, r2
  5c:	000000fc 	strdeq	r0, [r0], -ip
  60:	00000116 	andeq	r0, r0, r6, lsl r1
  64:	00910002 	addseq	r0, r1, r2
	...
  74:	00000076 	andeq	r0, r0, r6, ror r0
  78:	089e000a 	ldmeq	lr, {r1, r3}
	...
  84:	00000076 	andeq	r0, r0, r6, ror r0
  88:	000000c0 	andeq	r0, r0, r0, asr #1
  8c:	93500006 	cmpls	r0, #6
  90:	04935104 	ldreq	r5, [r3], #260	@ 0x104
  94:	000000ca 	andeq	r0, r0, sl, asr #1
  98:	000000ea 	andeq	r0, r0, sl, ror #1
  9c:	93500006 	cmpls	r0, #6
  a0:	04935104 	ldreq	r5, [r3], #260	@ 0x104
  a4:	000000f2 	strdeq	r0, [r0], -r2
  a8:	000000fc 	strdeq	r0, [r0], -ip
  ac:	93500006 	cmpls	r0, #6
  b0:	04935104 	ldreq	r5, [r3], #260	@ 0x104
  b4:	000000fc 	strdeq	r0, [r0], -ip
  b8:	00000116 	andeq	r0, r0, r6, lsl r1
  bc:	089e000a 	ldmeq	lr, {r1, r3}
	...
  d0:	0000000a 	andeq	r0, r0, sl
  d4:	00000062 	andeq	r0, r0, r2, rrx
  d8:	93540006 	cmpls	r4, #6
  dc:	04935504 	ldreq	r5, [r3], #1284	@ 0x504
  e0:	00000076 	andeq	r0, r0, r6, ror r0
  e4:	00000084 	andeq	r0, r0, r4, lsl #1
  e8:	93540006 	cmpls	r4, #6
  ec:	04935504 	ldreq	r5, [r3], #1284	@ 0x504
  f0:	00000092 	muleq	r0, r2, r0
  f4:	000000a0 	andeq	r0, r0, r0, lsr #1
  f8:	93540006 	cmpls	r4, #6
  fc:	04935504 	ldreq	r5, [r3], #1284	@ 0x504
 100:	000000a2 	andeq	r0, r0, r2, lsr #1
 104:	000000c8 	andeq	r0, r0, r8, asr #1
 108:	93540006 	cmpls	r4, #6
 10c:	04935504 	ldreq	r5, [r3], #1284	@ 0x504
 110:	000000cc 	andeq	r0, r0, ip, asr #1
 114:	00000116 	andeq	r0, r0, r6, lsl r1
 118:	93540006 	cmpls	r4, #6
 11c:	04935504 	ldreq	r5, [r3], #1284	@ 0x504
	...
 128:	0000000e 	andeq	r0, r0, lr
 12c:	00000018 	andeq	r0, r0, r8, lsl r0
 130:	93500006 	cmpls	r0, #6
 134:	04935104 	ldreq	r5, [r3], #260	@ 0x104
 138:	0000004e 	andeq	r0, r0, lr, asr #32
 13c:	000000ae 	andeq	r0, r0, lr, lsr #1
 140:	93560006 	cmpls	r6, #6
 144:	04935704 	ldreq	r5, [r3], #1796	@ 0x704
	...
 150:	0000010c 	andeq	r0, r0, ip, lsl #2
 154:	00000116 	andeq	r0, r0, r6, lsl r1
 158:	00560001 	subseq	r0, r6, r1
 15c:	00000000 	andeq	r0, r0, r0
 160:	2c000000 	stccs	0, cr0, [r0], {-0}
 164:	2e000000 	cdpcs	0, 0, cr0, cr0, cr0, {0}
 168:	01000000 	mrseq	r0, (UNDEF: 0)
 16c:	00005300 	andeq	r5, r0, r0, lsl #6
 170:	00000000 	andeq	r0, r0, r0
 174:	00800000 	addeq	r0, r0, r0
 178:	00920000 	addseq	r0, r2, r0
 17c:	00010000 	andeq	r0, r1, r0
 180:	00009253 	andeq	r9, r0, r3, asr r2
 184:	00009400 	andeq	r9, r0, r0, lsl #8
 188:	73000300 	movwvc	r0, #768	@ 0x300
 18c:	00949f7f 	addseq	r9, r4, pc, ror pc
 190:	00a20000 	adceq	r0, r2, r0
 194:	00010000 	andeq	r0, r1, r0
 198:	0000a253 	andeq	sl, r0, r3, asr r2
 19c:	0000a400 	andeq	sl, r0, r0, lsl #8
 1a0:	73000300 	movwvc	r0, #768	@ 0x300
 1a4:	00a49f7f 	adceq	r9, r4, pc, ror pc
 1a8:	00b60000 	adcseq	r0, r6, r0
 1ac:	00010000 	andeq	r0, r1, r0
 1b0:	00000053 	andeq	r0, r0, r3, asr r0
 1b4:	00000000 	andeq	r0, r0, r0
 1b8:	00002e00 	andeq	r2, r0, r0, lsl #28
 1bc:	00008200 	andeq	r8, r0, r0, lsl #4
 1c0:	53000100 	movwpl	r0, #256	@ 0x100
 1c4:	00000082 	andeq	r0, r0, r2, lsl #1
 1c8:	000000f2 	strdeq	r0, [r0], -r2
 1cc:	005e0001 	subseq	r0, lr, r1
 1d0:	00000000 	andeq	r0, r0, r0
 1d4:	Address 0x1d4 is out of bounds.


Disassembly of section .debug_str:

00000000 <.debug_str>:
   0:	64755f5f 	ldrbtvs	r5, [r5], #-3935	@ 0xfffff0a1
   4:	6f6d7669 	svcvs	0x006d7669
   8:	34696464 	strbtcc	r6, [r9], #-1124	@ 0xfffffb9c
   c:	6f682f00 	svcvs	0x00682f00
  10:	742f656d 	strtvc	r6, [pc], #-1389	@ 18 <shift+0x18>
  14:	2d677763 	stclcs	7, cr7, [r7, #-396]!	@ 0xfffffe74
  18:	6c697562 	cfstr64vs	mvdx7, [r9], #-392	@ 0xfffffe78
  1c:	616c7364 	cmnvs	ip, r4, ror #6
  20:	772f6576 			@ <UNDEFINED> instruction: 0x772f6576
  24:	736b726f 	cmnvc	fp, #-268435450	@ 0xf0000006
  28:	65636170 	strbvs	r6, [r3, #-368]!	@ 0xfffffe90
  2c:	7763742f 	strbvc	r7, [r3, -pc, lsr #8]!
  30:	616d2d67 	cmnvs	sp, r7, ror #26
  34:	722d656b 	eorvc	r6, sp, #448790528	@ 0x1ac00000
  38:	61656c65 	cmnvs	r5, r5, ror #24
  3c:	6c2f6573 	cfstr32vs	mvfx6, [pc], #-460	@ fffffe78 <__bss_end+0x787fc2b0>
  40:	6c656261 	sfmvs	f6, 2, [r5], #-388	@ 0xfffffe7c
  44:	636f642f 	cmnvs	pc, #788529152	@ 0x2f000000
  48:	2d72656b 	cfldr64cs	mvdx6, [r2, #-428]!	@ 0xfffffe54
  4c:	73757274 	cmnvc	r5, #116, 4	@ 0x40000007
  50:	612d7974 			@ <UNDEFINED> instruction: 0x612d7974
  54:	3436646d 	ldrtcc	r6, [r6], #-1133	@ 0xfffffb93
  58:	7763742d 	strbvc	r7, [r3, -sp, lsr #8]!
  5c:	75622d67 	strbvc	r2, [r2, #-3431]!	@ 0xfffff299
  60:	2f646c69 	svccs	0x00646c69
  64:	67726174 			@ <UNDEFINED> instruction: 0x67726174
  68:	612f7465 			@ <UNDEFINED> instruction: 0x612f7465
  6c:	6c2d6d72 	stcvs	13, cr6, [sp], #-456	@ 0xfffffe38
  70:	78756e69 	ldmdavc	r5!, {r0, r3, r5, r6, r9, sl, fp, sp, lr}^
  74:	756e672d 	strbvc	r6, [lr, #-1837]!	@ 0xfffff8d3
  78:	69626165 	stmdbvs	r2!, {r0, r2, r5, r6, r8, sp, lr}^
  7c:	5f2f6668 	svcpl	0x002f6668
  80:	6c697562 	cfstr64vs	mvdx7, [r9], #-392	@ 0xfffffe78
  84:	75622f64 	strbvc	r2, [r2, #-3940]!	@ 0xfffff09c
  88:	73646c69 	cmnvc	r4, #26880	@ 0x6900
  8c:	3638782f 	ldrtcc	r7, [r8], -pc, lsr #16
  90:	2d34365f 	ldccs	6, cr3, [r4, #-380]!	@ 0xfffffe84
  94:	6e6b6e75 	mcrvs	14, 3, r6, cr11, cr5, {3}
  98:	2d6e776f 	stclcs	7, cr7, [lr, #-444]!	@ 0xfffffe44
  9c:	756e696c 	strbvc	r6, [lr, #-2412]!	@ 0xfffff694
  a0:	6e672d78 	mcrvs	13, 3, r2, cr7, cr8, {3}
  a4:	72612f75 	rsbvc	r2, r1, #468	@ 0x1d4
  a8:	696c2d6d 	stmdbvs	ip!, {r0, r2, r3, r5, r6, r8, sl, fp, sp}^
  ac:	2d78756e 	cfldr64cs	mvdx7, [r8, #-440]!	@ 0xfffffe48
  b0:	65756e67 	ldrbvs	r6, [r5, #-3687]!	@ 0xfffff199
  b4:	68696261 	stmdavs	r9!, {r0, r5, r6, r9, sp, lr}^
  b8:	63672f66 	cmnvs	r7, #408	@ 0x198
  bc:	696c2d63 	stmdbvs	ip!, {r0, r1, r5, r6, r8, sl, fp, sp}^
  c0:	6f72616e 	svcvs	0x0072616e
  c4:	392e342d 	stmdbcc	lr!, {r0, r2, r3, r5, sl, ip, sp}
  c8:	3130322d 	teqcc	r0, sp, lsr #4
  cc:	31302e37 	teqcc	r0, r7, lsr lr
  d0:	6174732d 	cmnvs	r4, sp, lsr #6
  d4:	2f326567 	svccs	0x00326567
  d8:	2d6d7261 	sfmcs	f7, 2, [sp, #-388]!	@ 0xfffffe7c
  dc:	756e696c 	strbvc	r6, [lr, #-2412]!	@ 0xfffff694
  e0:	6e672d78 	mcrvs	13, 3, r2, cr7, cr8, {3}
  e4:	62616575 	rsbvs	r6, r1, #490733568	@ 0x1d400000
  e8:	2f666869 	svccs	0x00666869
  ec:	6762696c 	strbvs	r6, [r2, -ip, ror #18]!
  f0:	6c006363 	stcvs	3, cr6, [r0], {99}	@ 0x63
  f4:	20676e6f 	rsbcs	r6, r7, pc, ror #28
  f8:	676e6f6c 	strbvs	r6, [lr, -ip, ror #30]!
  fc:	736e7520 	cmnvc	lr, #32, 10	@ 0x8000000
 100:	656e6769 	strbvs	r6, [lr, #-1897]!	@ 0xfffff897
 104:	6e692064 	cdpvs	0, 6, cr2, cr9, cr4, {3}
 108:	6e750074 	mrcvs	0, 3, r0, cr5, cr4, {3}
 10c:	6e676973 			@ <UNDEFINED> instruction: 0x6e676973
 110:	63206465 			@ <UNDEFINED> instruction: 0x63206465
 114:	00726168 	rsbseq	r6, r2, r8, ror #2
 118:	726f6873 	rsbvc	r6, pc, #7536640	@ 0x730000
 11c:	6e752074 	mrcvs	0, 3, r2, cr5, cr4, {3}
 120:	6e676973 			@ <UNDEFINED> instruction: 0x6e676973
 124:	69206465 	stmdbvs	r0!, {r0, r2, r5, r6, sl, sp, lr}
 128:	4700746e 	strmi	r7, [r0, -lr, ror #8]
 12c:	4320554e 			@ <UNDEFINED> instruction: 0x4320554e
 130:	392e3420 	stmdbcc	lr!, {r5, sl, ip, sp}
 134:	2d20342e 	cfstrscs	mvf3, [r0, #-184]!	@ 0xffffff48
 138:	6372616d 	cmnvs	r2, #1073741851	@ 0x4000001b
 13c:	72613d68 	rsbvc	r3, r1, #104, 26	@ 0x1a00
 140:	2d37766d 	ldccs	6, cr7, [r7, #-436]!	@ 0xfffffe4c
 144:	6d2d2061 	stcvs	0, cr2, [sp, #-388]!	@ 0xfffffe7c
 148:	656e7574 	strbvs	r7, [lr, #-1396]!	@ 0xfffffa8c
 14c:	726f633d 	rsbvc	r6, pc, #-201326592	@ 0xf4000000
 150:	2d786574 	cfldr64cs	mvdx6, [r8, #-464]!	@ 0xfffffe30
 154:	2d203961 			@ <UNDEFINED> instruction: 0x2d203961
 158:	6f6c666d 	svcvs	0x006c666d
 15c:	612d7461 			@ <UNDEFINED> instruction: 0x612d7461
 160:	683d6962 	ldmdavs	sp!, {r1, r5, r6, r8, fp, sp, lr}
 164:	20647261 	rsbcs	r7, r4, r1, ror #4
 168:	70666d2d 	rsbvc	r6, r6, sp, lsr #26
 16c:	66763d75 			@ <UNDEFINED> instruction: 0x66763d75
 170:	2d337670 	ldccs	6, cr7, [r3, #-448]!	@ 0xfffffe40
 174:	20363164 	eorscs	r3, r6, r4, ror #2
 178:	68746d2d 	ldmdavs	r4!, {r0, r2, r3, r5, r8, sl, fp, sp, lr}^
 17c:	20626d75 	rsbcs	r6, r2, r5, ror sp
 180:	6c746d2d 	ldclvs	13, cr6, [r4], #-180	@ 0xffffff4c
 184:	69642d73 	stmdbvs	r4!, {r0, r1, r4, r5, r6, r8, sl, fp, sp}^
 188:	63656c61 	cmnvs	r5, #24832	@ 0x6100
 18c:	6e673d74 	mcrvs	13, 3, r3, cr7, cr4, {3}
 190:	672d2075 			@ <UNDEFINED> instruction: 0x672d2075
 194:	20672d20 	rsbcs	r2, r7, r0, lsr #26
 198:	2d20672d 	stccs	7, cr6, [r0, #-180]!	@ 0xffffff4c
 19c:	2d20324f 	sfmcs	f3, 4, [r0, #-316]!	@ 0xfffffec4
 1a0:	2d20324f 	sfmcs	f3, 4, [r0, #-316]!	@ 0xfffffec4
 1a4:	2d20324f 	sfmcs	f3, 4, [r0, #-316]!	@ 0xfffffec4
 1a8:	69756266 	ldmdbvs	r5!, {r1, r2, r5, r6, r9, sp, lr}^
 1ac:	6e69646c 	cdpvs	4, 6, cr6, cr9, cr12, {3}
 1b0:	696c2d67 	stmdbvs	ip!, {r0, r1, r2, r5, r6, r8, sl, fp, sp}^
 1b4:	63636762 	cmnvs	r3, #25690112	@ 0x1880000
 1b8:	6e662d20 	cdpvs	13, 6, cr2, cr6, cr0, {1}
 1bc:	74732d6f 	ldrbtvc	r2, [r3], #-3439	@ 0xfffff291
 1c0:	2d6b6361 	stclcs	3, cr6, [fp, #-388]!	@ 0xfffffe7c
 1c4:	746f7270 	strbtvc	r7, [pc], #-624	@ 1cc <shift+0x1cc>
 1c8:	6f746365 	svcvs	0x00746365
 1cc:	662d2072 			@ <UNDEFINED> instruction: 0x662d2072
 1d0:	20434950 	subcs	r4, r3, r0, asr r9
 1d4:	6f6e662d 	svcvs	0x006e662d
 1d8:	6c6e692d 			@ <UNDEFINED> instruction: 0x6c6e692d
 1dc:	20656e69 	rsbcs	r6, r5, r9, ror #28
 1e0:	7865662d 	stmdavc	r5!, {r0, r2, r3, r5, r9, sl, sp, lr}^
 1e4:	74706563 	ldrbtvc	r6, [r0], #-1379	@ 0xfffffa9d
 1e8:	736e6f69 	cmnvc	lr, #420	@ 0x1a4
 1ec:	76662d20 	strbtvc	r2, [r6], -r0, lsr #26
 1f0:	62697369 	rsbvs	r7, r9, #-1543503871	@ 0xa4000001
 1f4:	74696c69 	strbtvc	r6, [r9], #-3177	@ 0xfffff397
 1f8:	69683d79 	stmdbvs	r8!, {r0, r3, r4, r5, r6, r8, sl, fp, ip, sp}^
 1fc:	6e656464 	cdpvs	4, 6, cr6, cr5, cr4, {3}
 200:	49445500 	stmdbmi	r4, {r8, sl, ip, lr}^
 204:	65707974 	ldrbvs	r7, [r0, #-2420]!	@ 0xfffff68c
 208:	6d6f6300 	stclvs	3, cr6, [pc, #-0]	@ 210 <shift+0x210>
 20c:	78656c70 	stmdavc	r5!, {r4, r5, r6, sl, fp, sp, lr}^
 210:	6f6c6620 	svcvs	0x006c6620
 214:	73007461 	movwvc	r7, #1121	@ 0x461
 218:	74657a69 	strbtvc	r7, [r5], #-2665	@ 0xfffff597
 21c:	00657079 	rsbeq	r7, r5, r9, ror r0
 220:	676e6f6c 	strbvs	r6, [lr, -ip, ror #30]!
 224:	6e6f6c20 	cdpvs	12, 6, cr6, cr15, cr0, {1}
 228:	6e692067 	cdpvs	0, 6, cr2, cr9, cr7, {3}
 22c:	53550074 	cmppl	r5, #116	@ 0x74
 230:	70797449 	rsbsvc	r7, r9, r9, asr #8
 234:	68730065 	ldmdavs	r3!, {r0, r2, r5, r6}^
 238:	2074726f 	rsbscs	r7, r4, pc, ror #4
 23c:	00746e69 	rsbseq	r6, r4, r9, ror #28
 240:	706d6f63 	rsbvc	r6, sp, r3, ror #30
 244:	2078656c 	rsbscs	r6, r8, ip, ror #10
 248:	62756f64 	rsbsvs	r6, r5, #100, 30	@ 0x190
 24c:	2f00656c 	svccs	0x0000656c
 250:	656d6f68 	strbvs	r6, [sp, #-3944]!	@ 0xfffff098
 254:	7763742f 	strbvc	r7, [r3, -pc, lsr #8]!
 258:	75622d67 	strbvc	r2, [r2, #-3431]!	@ 0xfffff299
 25c:	73646c69 	cmnvc	r4, #26880	@ 0x6900
 260:	6576616c 	ldrbvs	r6, [r6, #-364]!	@ 0xfffffe94
 264:	726f772f 	rsbvc	r7, pc, #12320768	@ 0xbc0000
 268:	6170736b 	cmnvs	r0, fp, ror #6
 26c:	742f6563 	strtvc	r6, [pc], #-1379	@ 274 <shift+0x274>
 270:	2d677763 	stclcs	7, cr7, [r7, #-396]!	@ 0xfffffe74
 274:	656b616d 	strbvs	r6, [fp, #-365]!	@ 0xfffffe93
 278:	6c65722d 	sfmvs	f7, 2, [r5], #-180	@ 0xffffff4c
 27c:	65736165 	ldrbvs	r6, [r3, #-357]!	@ 0xfffffe9b
 280:	62616c2f 	rsbvs	r6, r1, #12032	@ 0x2f00
 284:	642f6c65 	strtvs	r6, [pc], #-3173	@ 28c <shift+0x28c>
 288:	656b636f 	strbvs	r6, [fp, #-879]!	@ 0xfffffc91
 28c:	72742d72 	rsbsvc	r2, r4, #7296	@ 0x1c80
 290:	79747375 	ldmdbvc	r4!, {r0, r2, r4, r5, r6, r8, r9, ip, sp, lr}^
 294:	646d612d 	strbtvs	r6, [sp], #-301	@ 0xfffffed3
 298:	742d3436 	strtvc	r3, [sp], #-1078	@ 0xfffffbca
 29c:	2d677763 	stclcs	7, cr7, [r7, #-396]!	@ 0xfffffe74
 2a0:	6c697562 	cfstr64vs	mvdx7, [r9], #-392	@ 0xfffffe78
 2a4:	61742f64 	cmnvs	r4, r4, ror #30
 2a8:	74656772 	strbtvc	r6, [r5], #-1906	@ 0xfffff88e
 2ac:	6d72612f 	ldfvse	f6, [r2, #-188]!	@ 0xffffff44
 2b0:	6e696c2d 	cdpvs	12, 6, cr6, cr9, cr13, {1}
 2b4:	672d7875 			@ <UNDEFINED> instruction: 0x672d7875
 2b8:	6165756e 	cmnvs	r5, lr, ror #10
 2bc:	66686962 	strbtvs	r6, [r8], -r2, ror #18
 2c0:	616e732f 	cmnvs	lr, pc, lsr #6
 2c4:	6f687370 	svcvs	0x00687370
 2c8:	672f7374 			@ <UNDEFINED> instruction: 0x672f7374
 2cc:	6c2d6363 	stcvs	3, cr6, [sp], #-396	@ 0xfffffe74
 2d0:	72616e69 	rsbvc	r6, r1, #1680	@ 0x690
 2d4:	2e342d6f 	cdpcs	13, 3, cr2, cr4, cr15, {3}
 2d8:	30322d39 	eorscc	r2, r2, r9, lsr sp
 2dc:	302e3731 	eorcc	r3, lr, r1, lsr r7
 2e0:	696c2f31 	stmdbvs	ip!, {r0, r4, r5, r8, r9, sl, fp, sp}^
 2e4:	63636762 	cmnvs	r3, #25690112	@ 0x1880000
 2e8:	62696c2f 	rsbvs	r6, r9, #12032	@ 0x2f00
 2ec:	32636367 	rsbcc	r6, r3, #-1677721599	@ 0x9c000001
 2f0:	Address 0x2f0 is out of bounds.

